	.file	"Expgen.cpp"
	.text
	.section	.text._ZnwmPv,"axG",@progbits,_ZnwmPv,comdat
	.weak	_ZnwmPv
	.type	_ZnwmPv, @function
_ZnwmPv:
.LFB286:
	.cfi_startproc
	endbr64
	pushq	%rbp
	.cfi_def_cfa_offset 16
	.cfi_offset 6, -16
	movq	%rsp, %rbp
	.cfi_def_cfa_register 6
	movq	%rdi, -8(%rbp)
	movq	%rsi, -16(%rbp)
	movq	-16(%rbp), %rax
	popq	%rbp
	.cfi_def_cfa 7, 8
	ret
	.cfi_endproc
.LFE286:
	.size	_ZnwmPv, .-_ZnwmPv
	.section	.text._ZdlPvS_,"axG",@progbits,_ZdlPvS_,comdat
	.weak	_ZdlPvS_
	.type	_ZdlPvS_, @function
_ZdlPvS_:
.LFB288:
	.cfi_startproc
	endbr64
	pushq	%rbp
	.cfi_def_cfa_offset 16
	.cfi_offset 6, -16
	movq	%rsp, %rbp
	.cfi_def_cfa_register 6
	movq	%rdi, -8(%rbp)
	movq	%rsi, -16(%rbp)
	nop
	popq	%rbp
	.cfi_def_cfa 7, 8
	ret
	.cfi_endproc
.LFE288:
	.size	_ZdlPvS_, .-_ZdlPvS_
	.section	.rodata
	.type	_ZStL19piecewise_construct, @object
	.size	_ZStL19piecewise_construct, 1
_ZStL19piecewise_construct:
	.zero	1
	.section	.text._ZN9__gnu_cxx5__ops16__iter_less_iterEv,"axG",@progbits,_ZN9__gnu_cxx5__ops16__iter_less_iterEv,comdat
	.weak	_ZN9__gnu_cxx5__ops16__iter_less_iterEv
	.type	_ZN9__gnu_cxx5__ops16__iter_less_iterEv, @function
_ZN9__gnu_cxx5__ops16__iter_less_iterEv:
.LFB505:
	.cfi_startproc
	endbr64
	pushq	%rbp
	.cfi_def_cfa_offset 16
	.cfi_offset 6, -16
	movq	%rsp, %rbp
	.cfi_def_cfa_register 6
	popq	%rbp
	.cfi_def_cfa 7, 8
	ret
	.cfi_endproc
.LFE505:
	.size	_ZN9__gnu_cxx5__ops16__iter_less_iterEv, .-_ZN9__gnu_cxx5__ops16__iter_less_iterEv
	.section	.text._ZNSt11char_traitsIcE6lengthEPKc,"axG",@progbits,_ZNSt11char_traitsIcE6lengthEPKc,comdat
	.weak	_ZNSt11char_traitsIcE6lengthEPKc
	.type	_ZNSt11char_traitsIcE6lengthEPKc, @function
_ZNSt11char_traitsIcE6lengthEPKc:
.LFB642:
	.cfi_startproc
	endbr64
	pushq	%rbp
	.cfi_def_cfa_offset 16
	.cfi_offset 6, -16
	movq	%rsp, %rbp
	.cfi_def_cfa_register 6
	movq	%rdi, -8(%rbp)
	movq	-8(%rbp), %rax
	movq	$-1, %rcx
	movq	%rax, %rdx
	movl	$0, %eax
	movq	%rdx, %rdi
	repnz scasb
	movq	%rcx, %rax
	notq	%rax
	subq	$1, %rax
	popq	%rbp
	.cfi_def_cfa 7, 8
	ret
	.cfi_endproc
.LFE642:
	.size	_ZNSt11char_traitsIcE6lengthEPKc, .-_ZNSt11char_traitsIcE6lengthEPKc
	.section	.rodata
.LC0:
	.string	"%d"
	.section	.text._ZNSt7__cxx119to_stringEi,"axG",@progbits,_ZNSt7__cxx119to_stringEi,comdat
	.weak	_ZNSt7__cxx119to_stringEi
	.type	_ZNSt7__cxx119to_stringEi, @function
_ZNSt7__cxx119to_stringEi:
.LFB1145:
	.cfi_startproc
	endbr64
	pushq	%rbp
	.cfi_def_cfa_offset 16
	.cfi_offset 6, -16
	movq	%rsp, %rbp
	.cfi_def_cfa_register 6
	subq	$32, %rsp
	movq	%rdi, -24(%rbp)
	movl	%esi, -28(%rbp)
	movq	%fs:40, %rax
	movq	%rax, -8(%rbp)
	xorl	%eax, %eax
	movq	-24(%rbp), %rax
	movl	-28(%rbp), %edx
	movl	%edx, %r8d
	leaq	.LC0(%rip), %rcx
	movl	$16, %edx
	movq	vsnprintf@GOTPCREL(%rip), %rsi
	movq	%rax, %rdi
	movl	$0, %eax
	call	_ZN9__gnu_cxx12__to_xstringINSt7__cxx1112basic_stringIcSt11char_traitsIcESaIcEEEcEET_PFiPT0_mPKS8_P13__va_list_tagEmSB_z
	movq	-8(%rbp), %rax
	xorq	%fs:40, %rax
	je	.L10
	call	__stack_chk_fail@PLT
.L10:
	movq	-24(%rbp), %rax
	leave
	.cfi_def_cfa 7, 8
	ret
	.cfi_endproc
.LFE1145:
	.size	_ZNSt7__cxx119to_stringEi, .-_ZNSt7__cxx119to_stringEi
	.section	.rodata
.LC1:
	.string	"%lu"
	.section	.text._ZNSt7__cxx119to_stringEm,"axG",@progbits,_ZNSt7__cxx119to_stringEm,comdat
	.weak	_ZNSt7__cxx119to_stringEm
	.type	_ZNSt7__cxx119to_stringEm, @function
_ZNSt7__cxx119to_stringEm:
.LFB1148:
	.cfi_startproc
	endbr64
	pushq	%rbp
	.cfi_def_cfa_offset 16
	.cfi_offset 6, -16
	movq	%rsp, %rbp
	.cfi_def_cfa_register 6
	subq	$32, %rsp
	movq	%rdi, -24(%rbp)
	movq	%rsi, -32(%rbp)
	movq	%fs:40, %rax
	movq	%rax, -8(%rbp)
	xorl	%eax, %eax
	movq	-24(%rbp), %rax
	movq	-32(%rbp), %rdx
	movq	%rdx, %r8
	leaq	.LC1(%rip), %rcx
	movl	$32, %edx
	movq	vsnprintf@GOTPCREL(%rip), %rsi
	movq	%rax, %rdi
	movl	$0, %eax
	call	_ZN9__gnu_cxx12__to_xstringINSt7__cxx1112basic_stringIcSt11char_traitsIcESaIcEEEcEET_PFiPT0_mPKS8_P13__va_list_tagEmSB_z
	movq	-8(%rbp), %rax
	xorq	%fs:40, %rax
	je	.L13
	call	__stack_chk_fail@PLT
.L13:
	movq	-24(%rbp), %rax
	leave
	.cfi_def_cfa 7, 8
	ret
	.cfi_endproc
.LFE1148:
	.size	_ZNSt7__cxx119to_stringEm, .-_ZNSt7__cxx119to_stringEm
	.section	.rodata
.LC2:
	.string	"%f"
	.section	.text._ZNSt7__cxx119to_stringEd,"axG",@progbits,_ZNSt7__cxx119to_stringEd,comdat
	.weak	_ZNSt7__cxx119to_stringEd
	.type	_ZNSt7__cxx119to_stringEd, @function
_ZNSt7__cxx119to_stringEd:
.LFB1152:
	.cfi_startproc
	endbr64
	pushq	%rbp
	.cfi_def_cfa_offset 16
	.cfi_offset 6, -16
	movq	%rsp, %rbp
	.cfi_def_cfa_register 6
	subq	$32, %rsp
	movq	%rdi, -24(%rbp)
	movsd	%xmm0, -32(%rbp)
	movq	%fs:40, %rax
	movq	%rax, -8(%rbp)
	xorl	%eax, %eax
	movl	$328, -12(%rbp)
	movq	-24(%rbp), %rax
	movq	-32(%rbp), %rdx
	movq	%rdx, %xmm0
	leaq	.LC2(%rip), %rcx
	movl	$328, %edx
	movq	vsnprintf@GOTPCREL(%rip), %rsi
	movq	%rax, %rdi
	movl	$1, %eax
	call	_ZN9__gnu_cxx12__to_xstringINSt7__cxx1112basic_stringIcSt11char_traitsIcESaIcEEEcEET_PFiPT0_mPKS8_P13__va_list_tagEmSB_z
	movq	-8(%rbp), %rax
	xorq	%fs:40, %rax
	je	.L16
	call	__stack_chk_fail@PLT
.L16:
	movq	-24(%rbp), %rax
	leave
	.cfi_def_cfa 7, 8
	ret
	.cfi_endproc
.LFE1152:
	.size	_ZNSt7__cxx119to_stringEd, .-_ZNSt7__cxx119to_stringEd
	.section	.rodata
	.type	_ZStL13allocator_arg, @object
	.size	_ZStL13allocator_arg, 1
_ZStL13allocator_arg:
	.zero	1
	.type	_ZStL6ignore, @object
	.size	_ZStL6ignore, 1
_ZStL6ignore:
	.zero	1
	.local	_ZStL8__ioinit
	.comm	_ZStL8__ioinit,1,1
	.section	.text._ZNSt18_Rb_tree_node_base10_S_minimumEPS_,"axG",@progbits,_ZNSt18_Rb_tree_node_base10_S_minimumEPS_,comdat
	.weak	_ZNSt18_Rb_tree_node_base10_S_minimumEPS_
	.type	_ZNSt18_Rb_tree_node_base10_S_minimumEPS_, @function
_ZNSt18_Rb_tree_node_base10_S_minimumEPS_:
.LFB3797:
	.cfi_startproc
	endbr64
	pushq	%rbp
	.cfi_def_cfa_offset 16
	.cfi_offset 6, -16
	movq	%rsp, %rbp
	.cfi_def_cfa_register 6
	movq	%rdi, -8(%rbp)
.L19:
	movq	-8(%rbp), %rax
	movq	16(%rax), %rax
	testq	%rax, %rax
	je	.L18
	movq	-8(%rbp), %rax
	movq	16(%rax), %rax
	movq	%rax, -8(%rbp)
	jmp	.L19
.L18:
	movq	-8(%rbp), %rax
	popq	%rbp
	.cfi_def_cfa 7, 8
	ret
	.cfi_endproc
.LFE3797:
	.size	_ZNSt18_Rb_tree_node_base10_S_minimumEPS_, .-_ZNSt18_Rb_tree_node_base10_S_minimumEPS_
	.section	.text._ZNSt18_Rb_tree_node_base10_S_maximumEPS_,"axG",@progbits,_ZNSt18_Rb_tree_node_base10_S_maximumEPS_,comdat
	.weak	_ZNSt18_Rb_tree_node_base10_S_maximumEPS_
	.type	_ZNSt18_Rb_tree_node_base10_S_maximumEPS_, @function
_ZNSt18_Rb_tree_node_base10_S_maximumEPS_:
.LFB3799:
	.cfi_startproc
	endbr64
	pushq	%rbp
	.cfi_def_cfa_offset 16
	.cfi_offset 6, -16
	movq	%rsp, %rbp
	.cfi_def_cfa_register 6
	movq	%rdi, -8(%rbp)
.L23:
	movq	-8(%rbp), %rax
	movq	24(%rax), %rax
	testq	%rax, %rax
	je	.L22
	movq	-8(%rbp), %rax
	movq	24(%rax), %rax
	movq	%rax, -8(%rbp)
	jmp	.L23
.L22:
	movq	-8(%rbp), %rax
	popq	%rbp
	.cfi_def_cfa 7, 8
	ret
	.cfi_endproc
.LFE3799:
	.size	_ZNSt18_Rb_tree_node_base10_S_maximumEPS_, .-_ZNSt18_Rb_tree_node_base10_S_maximumEPS_
	.section	.text._ZNSt15_Rb_tree_headerC2Ev,"axG",@progbits,_ZNSt15_Rb_tree_headerC5Ev,comdat
	.align 2
	.weak	_ZNSt15_Rb_tree_headerC2Ev
	.type	_ZNSt15_Rb_tree_headerC2Ev, @function
_ZNSt15_Rb_tree_headerC2Ev:
.LFB3805:
	.cfi_startproc
	endbr64
	pushq	%rbp
	.cfi_def_cfa_offset 16
	.cfi_offset 6, -16
	movq	%rsp, %rbp
	.cfi_def_cfa_register 6
	subq	$16, %rsp
	movq	%rdi, -8(%rbp)
	movq	-8(%rbp), %rax
	movl	$0, (%rax)
	movq	-8(%rbp), %rax
	movq	%rax, %rdi
	call	_ZNSt15_Rb_tree_header8_M_resetEv
	nop
	leave
	.cfi_def_cfa 7, 8
	ret
	.cfi_endproc
.LFE3805:
	.size	_ZNSt15_Rb_tree_headerC2Ev, .-_ZNSt15_Rb_tree_headerC2Ev
	.weak	_ZNSt15_Rb_tree_headerC1Ev
	.set	_ZNSt15_Rb_tree_headerC1Ev,_ZNSt15_Rb_tree_headerC2Ev
	.section	.text._ZNSt15_Rb_tree_header12_M_move_dataERS_,"axG",@progbits,_ZNSt15_Rb_tree_header12_M_move_dataERS_,comdat
	.align 2
	.weak	_ZNSt15_Rb_tree_header12_M_move_dataERS_
	.type	_ZNSt15_Rb_tree_header12_M_move_dataERS_, @function
_ZNSt15_Rb_tree_header12_M_move_dataERS_:
.LFB3810:
	.cfi_startproc
	endbr64
	pushq	%rbp
	.cfi_def_cfa_offset 16
	.cfi_offset 6, -16
	movq	%rsp, %rbp
	.cfi_def_cfa_register 6
	subq	$16, %rsp
	movq	%rdi, -8(%rbp)
	movq	%rsi, -16(%rbp)
	movq	-16(%rbp), %rax
	movl	(%rax), %edx
	movq	-8(%rbp), %rax
	movl	%edx, (%rax)
	movq	-16(%rbp), %rax
	movq	8(%rax), %rdx
	movq	-8(%rbp), %rax
	movq	%rdx, 8(%rax)
	movq	-16(%rbp), %rax
	movq	16(%rax), %rdx
	movq	-8(%rbp), %rax
	movq	%rdx, 16(%rax)
	movq	-16(%rbp), %rax
	movq	24(%rax), %rdx
	movq	-8(%rbp), %rax
	movq	%rdx, 24(%rax)
	movq	-8(%rbp), %rax
	movq	8(%rax), %rax
	movq	-8(%rbp), %rdx
	movq	%rdx, 8(%rax)
	movq	-16(%rbp), %rax
	movq	32(%rax), %rdx
	movq	-8(%rbp), %rax
	movq	%rdx, 32(%rax)
	movq	-16(%rbp), %rax
	movq	%rax, %rdi
	call	_ZNSt15_Rb_tree_header8_M_resetEv
	nop
	leave
	.cfi_def_cfa 7, 8
	ret
	.cfi_endproc
.LFE3810:
	.size	_ZNSt15_Rb_tree_header12_M_move_dataERS_, .-_ZNSt15_Rb_tree_header12_M_move_dataERS_
	.section	.text._ZNSt15_Rb_tree_header8_M_resetEv,"axG",@progbits,_ZNSt15_Rb_tree_header8_M_resetEv,comdat
	.align 2
	.weak	_ZNSt15_Rb_tree_header8_M_resetEv
	.type	_ZNSt15_Rb_tree_header8_M_resetEv, @function
_ZNSt15_Rb_tree_header8_M_resetEv:
.LFB3811:
	.cfi_startproc
	endbr64
	pushq	%rbp
	.cfi_def_cfa_offset 16
	.cfi_offset 6, -16
	movq	%rsp, %rbp
	.cfi_def_cfa_register 6
	movq	%rdi, -8(%rbp)
	movq	-8(%rbp), %rax
	movq	$0, 8(%rax)
	movq	-8(%rbp), %rdx
	movq	-8(%rbp), %rax
	movq	%rdx, 16(%rax)
	movq	-8(%rbp), %rdx
	movq	-8(%rbp), %rax
	movq	%rdx, 24(%rax)
	movq	-8(%rbp), %rax
	movq	$0, 32(%rax)
	nop
	popq	%rbp
	.cfi_def_cfa 7, 8
	ret
	.cfi_endproc
.LFE3811:
	.size	_ZNSt15_Rb_tree_header8_M_resetEv, .-_ZNSt15_Rb_tree_header8_M_resetEv
	.section	.rodata
	.align 4
	.type	_ZN9__gnu_cxxL21__default_lock_policyE, @object
	.size	_ZN9__gnu_cxxL21__default_lock_policyE, 4
_ZN9__gnu_cxxL21__default_lock_policyE:
	.long	2
	.type	_ZStL10defer_lock, @object
	.size	_ZStL10defer_lock, 1
_ZStL10defer_lock:
	.zero	1
	.type	_ZStL11try_to_lock, @object
	.size	_ZStL11try_to_lock, 1
_ZStL11try_to_lock:
	.zero	1
	.type	_ZStL10adopt_lock, @object
	.size	_ZStL10adopt_lock, 1
_ZStL10adopt_lock:
	.zero	1
	.align 4
	.type	_ZNSt15regex_constantsL5icaseE, @object
	.size	_ZNSt15regex_constantsL5icaseE, 4
_ZNSt15regex_constantsL5icaseE:
	.long	1
	.align 4
	.type	_ZNSt15regex_constantsL6nosubsE, @object
	.size	_ZNSt15regex_constantsL6nosubsE, 4
_ZNSt15regex_constantsL6nosubsE:
	.long	2
	.align 4
	.type	_ZNSt15regex_constantsL8optimizeE, @object
	.size	_ZNSt15regex_constantsL8optimizeE, 4
_ZNSt15regex_constantsL8optimizeE:
	.long	4
	.align 4
	.type	_ZNSt15regex_constantsL7collateE, @object
	.size	_ZNSt15regex_constantsL7collateE, 4
_ZNSt15regex_constantsL7collateE:
	.long	8
	.align 4
	.type	_ZNSt15regex_constantsL10ECMAScriptE, @object
	.size	_ZNSt15regex_constantsL10ECMAScriptE, 4
_ZNSt15regex_constantsL10ECMAScriptE:
	.long	16
	.align 4
	.type	_ZNSt15regex_constantsL5basicE, @object
	.size	_ZNSt15regex_constantsL5basicE, 4
_ZNSt15regex_constantsL5basicE:
	.long	32
	.align 4
	.type	_ZNSt15regex_constantsL8extendedE, @object
	.size	_ZNSt15regex_constantsL8extendedE, 4
_ZNSt15regex_constantsL8extendedE:
	.long	64
	.align 4
	.type	_ZNSt15regex_constantsL3awkE, @object
	.size	_ZNSt15regex_constantsL3awkE, 4
_ZNSt15regex_constantsL3awkE:
	.long	128
	.align 4
	.type	_ZNSt15regex_constantsL4grepE, @object
	.size	_ZNSt15regex_constantsL4grepE, 4
_ZNSt15regex_constantsL4grepE:
	.long	256
	.align 4
	.type	_ZNSt15regex_constantsL5egrepE, @object
	.size	_ZNSt15regex_constantsL5egrepE, 4
_ZNSt15regex_constantsL5egrepE:
	.long	512
	.align 4
	.type	_ZNSt15regex_constantsL12__polynomialE, @object
	.size	_ZNSt15regex_constantsL12__polynomialE, 4
_ZNSt15regex_constantsL12__polynomialE:
	.long	1024
	.align 4
	.type	_ZNSt15regex_constantsL13match_defaultE, @object
	.size	_ZNSt15regex_constantsL13match_defaultE, 4
_ZNSt15regex_constantsL13match_defaultE:
	.zero	4
	.align 4
	.type	_ZNSt15regex_constantsL13match_not_bolE, @object
	.size	_ZNSt15regex_constantsL13match_not_bolE, 4
_ZNSt15regex_constantsL13match_not_bolE:
	.long	1
	.align 4
	.type	_ZNSt15regex_constantsL13match_not_eolE, @object
	.size	_ZNSt15regex_constantsL13match_not_eolE, 4
_ZNSt15regex_constantsL13match_not_eolE:
	.long	2
	.align 4
	.type	_ZNSt15regex_constantsL13match_not_bowE, @object
	.size	_ZNSt15regex_constantsL13match_not_bowE, 4
_ZNSt15regex_constantsL13match_not_bowE:
	.long	4
	.align 4
	.type	_ZNSt15regex_constantsL13match_not_eowE, @object
	.size	_ZNSt15regex_constantsL13match_not_eowE, 4
_ZNSt15regex_constantsL13match_not_eowE:
	.long	8
	.align 4
	.type	_ZNSt15regex_constantsL9match_anyE, @object
	.size	_ZNSt15regex_constantsL9match_anyE, 4
_ZNSt15regex_constantsL9match_anyE:
	.long	16
	.align 4
	.type	_ZNSt15regex_constantsL14match_not_nullE, @object
	.size	_ZNSt15regex_constantsL14match_not_nullE, 4
_ZNSt15regex_constantsL14match_not_nullE:
	.long	32
	.align 4
	.type	_ZNSt15regex_constantsL16match_continuousE, @object
	.size	_ZNSt15regex_constantsL16match_continuousE, 4
_ZNSt15regex_constantsL16match_continuousE:
	.long	64
	.align 4
	.type	_ZNSt15regex_constantsL16match_prev_availE, @object
	.size	_ZNSt15regex_constantsL16match_prev_availE, 4
_ZNSt15regex_constantsL16match_prev_availE:
	.long	128
	.align 4
	.type	_ZNSt15regex_constantsL14format_defaultE, @object
	.size	_ZNSt15regex_constantsL14format_defaultE, 4
_ZNSt15regex_constantsL14format_defaultE:
	.zero	4
	.align 4
	.type	_ZNSt15regex_constantsL10format_sedE, @object
	.size	_ZNSt15regex_constantsL10format_sedE, 4
_ZNSt15regex_constantsL10format_sedE:
	.long	256
	.align 4
	.type	_ZNSt15regex_constantsL14format_no_copyE, @object
	.size	_ZNSt15regex_constantsL14format_no_copyE, 4
_ZNSt15regex_constantsL14format_no_copyE:
	.long	512
	.align 4
	.type	_ZNSt15regex_constantsL17format_first_onlyE, @object
	.size	_ZNSt15regex_constantsL17format_first_onlyE, 4
_ZNSt15regex_constantsL17format_first_onlyE:
	.long	1024
	.align 4
	.type	_ZNSt15regex_constantsL13error_collateE, @object
	.size	_ZNSt15regex_constantsL13error_collateE, 4
_ZNSt15regex_constantsL13error_collateE:
	.zero	4
	.align 4
	.type	_ZNSt15regex_constantsL11error_ctypeE, @object
	.size	_ZNSt15regex_constantsL11error_ctypeE, 4
_ZNSt15regex_constantsL11error_ctypeE:
	.long	1
	.align 4
	.type	_ZNSt15regex_constantsL12error_escapeE, @object
	.size	_ZNSt15regex_constantsL12error_escapeE, 4
_ZNSt15regex_constantsL12error_escapeE:
	.long	2
	.align 4
	.type	_ZNSt15regex_constantsL13error_backrefE, @object
	.size	_ZNSt15regex_constantsL13error_backrefE, 4
_ZNSt15regex_constantsL13error_backrefE:
	.long	3
	.align 4
	.type	_ZNSt15regex_constantsL11error_brackE, @object
	.size	_ZNSt15regex_constantsL11error_brackE, 4
_ZNSt15regex_constantsL11error_brackE:
	.long	4
	.align 4
	.type	_ZNSt15regex_constantsL11error_parenE, @object
	.size	_ZNSt15regex_constantsL11error_parenE, 4
_ZNSt15regex_constantsL11error_parenE:
	.long	5
	.align 4
	.type	_ZNSt15regex_constantsL11error_braceE, @object
	.size	_ZNSt15regex_constantsL11error_braceE, 4
_ZNSt15regex_constantsL11error_braceE:
	.long	6
	.align 4
	.type	_ZNSt15regex_constantsL14error_badbraceE, @object
	.size	_ZNSt15regex_constantsL14error_badbraceE, 4
_ZNSt15regex_constantsL14error_badbraceE:
	.long	7
	.align 4
	.type	_ZNSt15regex_constantsL11error_rangeE, @object
	.size	_ZNSt15regex_constantsL11error_rangeE, 4
_ZNSt15regex_constantsL11error_rangeE:
	.long	8
	.align 4
	.type	_ZNSt15regex_constantsL11error_spaceE, @object
	.size	_ZNSt15regex_constantsL11error_spaceE, 4
_ZNSt15regex_constantsL11error_spaceE:
	.long	9
	.align 4
	.type	_ZNSt15regex_constantsL15error_badrepeatE, @object
	.size	_ZNSt15regex_constantsL15error_badrepeatE, 4
_ZNSt15regex_constantsL15error_badrepeatE:
	.long	10
	.align 4
	.type	_ZNSt15regex_constantsL16error_complexityE, @object
	.size	_ZNSt15regex_constantsL16error_complexityE, 4
_ZNSt15regex_constantsL16error_complexityE:
	.long	11
	.align 4
	.type	_ZNSt15regex_constantsL11error_stackE, @object
	.size	_ZNSt15regex_constantsL11error_stackE, 4
_ZNSt15regex_constantsL11error_stackE:
	.long	12
	.align 8
	.type	_ZNSt8__detailL19_S_invalid_state_idE, @object
	.size	_ZNSt8__detailL19_S_invalid_state_idE, 8
_ZNSt8__detailL19_S_invalid_state_idE:
	.quad	-1
	.section	.text._ZSt3minImERKT_S2_S2_,"axG",@progbits,_ZSt3minImERKT_S2_S2_,comdat
	.weak	_ZSt3minImERKT_S2_S2_
	.type	_ZSt3minImERKT_S2_S2_, @function
_ZSt3minImERKT_S2_S2_:
.LFB7760:
	.cfi_startproc
	endbr64
	pushq	%rbp
	.cfi_def_cfa_offset 16
	.cfi_offset 6, -16
	movq	%rsp, %rbp
	.cfi_def_cfa_register 6
	movq	%rdi, -8(%rbp)
	movq	%rsi, -16(%rbp)
	movq	-16(%rbp), %rax
	movq	(%rax), %rdx
	movq	-8(%rbp), %rax
	movq	(%rax), %rax
	cmpq	%rax, %rdx
	jnb	.L29
	movq	-16(%rbp), %rax
	jmp	.L30
.L29:
	movq	-8(%rbp), %rax
.L30:
	popq	%rbp
	.cfi_def_cfa 7, 8
	ret
	.cfi_endproc
.LFE7760:
	.size	_ZSt3minImERKT_S2_S2_, .-_ZSt3minImERKT_S2_S2_
	.section	.text._ZNSt12_Vector_baseINSt7__cxx1112basic_stringIcSt11char_traitsIcESaIcEEESaIS5_EE12_Vector_implD2Ev,"axG",@progbits,_ZNSt12_Vector_baseINSt7__cxx1112basic_stringIcSt11char_traitsIcESaIcEEESaIS5_EE12_Vector_implD5Ev,comdat
	.align 2
	.weak	_ZNSt12_Vector_baseINSt7__cxx1112basic_stringIcSt11char_traitsIcESaIcEEESaIS5_EE12_Vector_implD2Ev
	.type	_ZNSt12_Vector_baseINSt7__cxx1112basic_stringIcSt11char_traitsIcESaIcEEESaIS5_EE12_Vector_implD2Ev, @function
_ZNSt12_Vector_baseINSt7__cxx1112basic_stringIcSt11char_traitsIcESaIcEEESaIS5_EE12_Vector_implD2Ev:
.LFB8349:
	.cfi_startproc
	endbr64
	pushq	%rbp
	.cfi_def_cfa_offset 16
	.cfi_offset 6, -16
	movq	%rsp, %rbp
	.cfi_def_cfa_register 6
	subq	$16, %rsp
	movq	%rdi, -8(%rbp)
	movq	-8(%rbp), %rax
	movq	%rax, %rdi
	call	_ZNSaINSt7__cxx1112basic_stringIcSt11char_traitsIcESaIcEEEED2Ev
	nop
	leave
	.cfi_def_cfa 7, 8
	ret
	.cfi_endproc
.LFE8349:
	.size	_ZNSt12_Vector_baseINSt7__cxx1112basic_stringIcSt11char_traitsIcESaIcEEESaIS5_EE12_Vector_implD2Ev, .-_ZNSt12_Vector_baseINSt7__cxx1112basic_stringIcSt11char_traitsIcESaIcEEESaIS5_EE12_Vector_implD2Ev
	.weak	_ZNSt12_Vector_baseINSt7__cxx1112basic_stringIcSt11char_traitsIcESaIcEEESaIS5_EE12_Vector_implD1Ev
	.set	_ZNSt12_Vector_baseINSt7__cxx1112basic_stringIcSt11char_traitsIcESaIcEEESaIS5_EE12_Vector_implD1Ev,_ZNSt12_Vector_baseINSt7__cxx1112basic_stringIcSt11char_traitsIcESaIcEEESaIS5_EE12_Vector_implD2Ev
	.section	.text._ZNSt12_Vector_baseISt6vectorIdSaIdEESaIS2_EE12_Vector_implD2Ev,"axG",@progbits,_ZNSt12_Vector_baseISt6vectorIdSaIdEESaIS2_EE12_Vector_implD5Ev,comdat
	.align 2
	.weak	_ZNSt12_Vector_baseISt6vectorIdSaIdEESaIS2_EE12_Vector_implD2Ev
	.type	_ZNSt12_Vector_baseISt6vectorIdSaIdEESaIS2_EE12_Vector_implD2Ev, @function
_ZNSt12_Vector_baseISt6vectorIdSaIdEESaIS2_EE12_Vector_implD2Ev:
.LFB8361:
	.cfi_startproc
	endbr64
	pushq	%rbp
	.cfi_def_cfa_offset 16
	.cfi_offset 6, -16
	movq	%rsp, %rbp
	.cfi_def_cfa_register 6
	subq	$16, %rsp
	movq	%rdi, -8(%rbp)
	movq	-8(%rbp), %rax
	movq	%rax, %rdi
	call	_ZNSaISt6vectorIdSaIdEEED2Ev
	nop
	leave
	.cfi_def_cfa 7, 8
	ret
	.cfi_endproc
.LFE8361:
	.size	_ZNSt12_Vector_baseISt6vectorIdSaIdEESaIS2_EE12_Vector_implD2Ev, .-_ZNSt12_Vector_baseISt6vectorIdSaIdEESaIS2_EE12_Vector_implD2Ev
	.weak	_ZNSt12_Vector_baseISt6vectorIdSaIdEESaIS2_EE12_Vector_implD1Ev
	.set	_ZNSt12_Vector_baseISt6vectorIdSaIdEESaIS2_EE12_Vector_implD1Ev,_ZNSt12_Vector_baseISt6vectorIdSaIdEESaIS2_EE12_Vector_implD2Ev
	.section	.text._ZNSt12_Vector_baseISt6vectorIdSaIdEESaIS2_EEC2Ev,"axG",@progbits,_ZNSt12_Vector_baseISt6vectorIdSaIdEESaIS2_EEC5Ev,comdat
	.align 2
	.weak	_ZNSt12_Vector_baseISt6vectorIdSaIdEESaIS2_EEC2Ev
	.type	_ZNSt12_Vector_baseISt6vectorIdSaIdEESaIS2_EEC2Ev, @function
_ZNSt12_Vector_baseISt6vectorIdSaIdEESaIS2_EEC2Ev:
.LFB8363:
	.cfi_startproc
	endbr64
	pushq	%rbp
	.cfi_def_cfa_offset 16
	.cfi_offset 6, -16
	movq	%rsp, %rbp
	.cfi_def_cfa_register 6
	subq	$16, %rsp
	movq	%rdi, -8(%rbp)
	movq	-8(%rbp), %rax
	movq	%rax, %rdi
	call	_ZNSt12_Vector_baseISt6vectorIdSaIdEESaIS2_EE12_Vector_implC1Ev
	nop
	leave
	.cfi_def_cfa 7, 8
	ret
	.cfi_endproc
.LFE8363:
	.size	_ZNSt12_Vector_baseISt6vectorIdSaIdEESaIS2_EEC2Ev, .-_ZNSt12_Vector_baseISt6vectorIdSaIdEESaIS2_EEC2Ev
	.weak	_ZNSt12_Vector_baseISt6vectorIdSaIdEESaIS2_EEC1Ev
	.set	_ZNSt12_Vector_baseISt6vectorIdSaIdEESaIS2_EEC1Ev,_ZNSt12_Vector_baseISt6vectorIdSaIdEESaIS2_EEC2Ev
	.section	.text._ZNSt6vectorIS_IdSaIdEESaIS1_EEC2Ev,"axG",@progbits,_ZNSt6vectorIS_IdSaIdEESaIS1_EEC5Ev,comdat
	.align 2
	.weak	_ZNSt6vectorIS_IdSaIdEESaIS1_EEC2Ev
	.type	_ZNSt6vectorIS_IdSaIdEESaIS1_EEC2Ev, @function
_ZNSt6vectorIS_IdSaIdEESaIS1_EEC2Ev:
.LFB8365:
	.cfi_startproc
	endbr64
	pushq	%rbp
	.cfi_def_cfa_offset 16
	.cfi_offset 6, -16
	movq	%rsp, %rbp
	.cfi_def_cfa_register 6
	subq	$16, %rsp
	movq	%rdi, -8(%rbp)
	movq	-8(%rbp), %rax
	movq	%rax, %rdi
	call	_ZNSt12_Vector_baseISt6vectorIdSaIdEESaIS2_EEC2Ev
	nop
	leave
	.cfi_def_cfa 7, 8
	ret
	.cfi_endproc
.LFE8365:
	.size	_ZNSt6vectorIS_IdSaIdEESaIS1_EEC2Ev, .-_ZNSt6vectorIS_IdSaIdEESaIS1_EEC2Ev
	.weak	_ZNSt6vectorIS_IdSaIdEESaIS1_EEC1Ev
	.set	_ZNSt6vectorIS_IdSaIdEESaIS1_EEC1Ev,_ZNSt6vectorIS_IdSaIdEESaIS1_EEC2Ev
	.section	.text._ZNSt12_Vector_baseIP11GraphRecsysSaIS1_EE12_Vector_implD2Ev,"axG",@progbits,_ZNSt12_Vector_baseIP11GraphRecsysSaIS1_EE12_Vector_implD5Ev,comdat
	.align 2
	.weak	_ZNSt12_Vector_baseIP11GraphRecsysSaIS1_EE12_Vector_implD2Ev
	.type	_ZNSt12_Vector_baseIP11GraphRecsysSaIS1_EE12_Vector_implD2Ev, @function
_ZNSt12_Vector_baseIP11GraphRecsysSaIS1_EE12_Vector_implD2Ev:
.LFB8370:
	.cfi_startproc
	endbr64
	pushq	%rbp
	.cfi_def_cfa_offset 16
	.cfi_offset 6, -16
	movq	%rsp, %rbp
	.cfi_def_cfa_register 6
	subq	$16, %rsp
	movq	%rdi, -8(%rbp)
	movq	-8(%rbp), %rax
	movq	%rax, %rdi
	call	_ZNSaIP11GraphRecsysED2Ev
	nop
	leave
	.cfi_def_cfa 7, 8
	ret
	.cfi_endproc
.LFE8370:
	.size	_ZNSt12_Vector_baseIP11GraphRecsysSaIS1_EE12_Vector_implD2Ev, .-_ZNSt12_Vector_baseIP11GraphRecsysSaIS1_EE12_Vector_implD2Ev
	.weak	_ZNSt12_Vector_baseIP11GraphRecsysSaIS1_EE12_Vector_implD1Ev
	.set	_ZNSt12_Vector_baseIP11GraphRecsysSaIS1_EE12_Vector_implD1Ev,_ZNSt12_Vector_baseIP11GraphRecsysSaIS1_EE12_Vector_implD2Ev
	.section	.text._ZNSt12_Vector_baseIP11GraphRecsysSaIS1_EEC2Ev,"axG",@progbits,_ZNSt12_Vector_baseIP11GraphRecsysSaIS1_EEC5Ev,comdat
	.align 2
	.weak	_ZNSt12_Vector_baseIP11GraphRecsysSaIS1_EEC2Ev
	.type	_ZNSt12_Vector_baseIP11GraphRecsysSaIS1_EEC2Ev, @function
_ZNSt12_Vector_baseIP11GraphRecsysSaIS1_EEC2Ev:
.LFB8372:
	.cfi_startproc
	endbr64
	pushq	%rbp
	.cfi_def_cfa_offset 16
	.cfi_offset 6, -16
	movq	%rsp, %rbp
	.cfi_def_cfa_register 6
	subq	$16, %rsp
	movq	%rdi, -8(%rbp)
	movq	-8(%rbp), %rax
	movq	%rax, %rdi
	call	_ZNSt12_Vector_baseIP11GraphRecsysSaIS1_EE12_Vector_implC1Ev
	nop
	leave
	.cfi_def_cfa 7, 8
	ret
	.cfi_endproc
.LFE8372:
	.size	_ZNSt12_Vector_baseIP11GraphRecsysSaIS1_EEC2Ev, .-_ZNSt12_Vector_baseIP11GraphRecsysSaIS1_EEC2Ev
	.weak	_ZNSt12_Vector_baseIP11GraphRecsysSaIS1_EEC1Ev
	.set	_ZNSt12_Vector_baseIP11GraphRecsysSaIS1_EEC1Ev,_ZNSt12_Vector_baseIP11GraphRecsysSaIS1_EEC2Ev
	.section	.text._ZNSt6vectorIP11GraphRecsysSaIS1_EEC2Ev,"axG",@progbits,_ZNSt6vectorIP11GraphRecsysSaIS1_EEC5Ev,comdat
	.align 2
	.weak	_ZNSt6vectorIP11GraphRecsysSaIS1_EEC2Ev
	.type	_ZNSt6vectorIP11GraphRecsysSaIS1_EEC2Ev, @function
_ZNSt6vectorIP11GraphRecsysSaIS1_EEC2Ev:
.LFB8374:
	.cfi_startproc
	endbr64
	pushq	%rbp
	.cfi_def_cfa_offset 16
	.cfi_offset 6, -16
	movq	%rsp, %rbp
	.cfi_def_cfa_register 6
	subq	$16, %rsp
	movq	%rdi, -8(%rbp)
	movq	-8(%rbp), %rax
	movq	%rax, %rdi
	call	_ZNSt12_Vector_baseIP11GraphRecsysSaIS1_EEC2Ev
	nop
	leave
	.cfi_def_cfa 7, 8
	ret
	.cfi_endproc
.LFE8374:
	.size	_ZNSt6vectorIP11GraphRecsysSaIS1_EEC2Ev, .-_ZNSt6vectorIP11GraphRecsysSaIS1_EEC2Ev
	.weak	_ZNSt6vectorIP11GraphRecsysSaIS1_EEC1Ev
	.set	_ZNSt6vectorIP11GraphRecsysSaIS1_EEC1Ev,_ZNSt6vectorIP11GraphRecsysSaIS1_EEC2Ev
	.section	.text._ZNSt8_Rb_treeINSt7__cxx1112basic_stringIcSt11char_traitsIcESaIcEEESt4pairIKS5_St3mapIS5_dSt4lessIS5_ESaIS6_IS7_dEEEESt10_Select1stISE_ESA_SaISE_EE13_Rb_tree_implISA_Lb1EED2Ev,"axG",@progbits,_ZNSt8_Rb_treeINSt7__cxx1112basic_stringIcSt11char_traitsIcESaIcEEESt4pairIKS5_St3mapIS5_dSt4lessIS5_ESaIS6_IS7_dEEEESt10_Select1stISE_ESA_SaISE_EE13_Rb_tree_implISA_Lb1EED5Ev,comdat
	.align 2
	.weak	_ZNSt8_Rb_treeINSt7__cxx1112basic_stringIcSt11char_traitsIcESaIcEEESt4pairIKS5_St3mapIS5_dSt4lessIS5_ESaIS6_IS7_dEEEESt10_Select1stISE_ESA_SaISE_EE13_Rb_tree_implISA_Lb1EED2Ev
	.type	_ZNSt8_Rb_treeINSt7__cxx1112basic_stringIcSt11char_traitsIcESaIcEEESt4pairIKS5_St3mapIS5_dSt4lessIS5_ESaIS6_IS7_dEEEESt10_Select1stISE_ESA_SaISE_EE13_Rb_tree_implISA_Lb1EED2Ev, @function
_ZNSt8_Rb_treeINSt7__cxx1112basic_stringIcSt11char_traitsIcESaIcEEESt4pairIKS5_St3mapIS5_dSt4lessIS5_ESaIS6_IS7_dEEEESt10_Select1stISE_ESA_SaISE_EE13_Rb_tree_implISA_Lb1EED2Ev:
.LFB8379:
	.cfi_startproc
	endbr64
	pushq	%rbp
	.cfi_def_cfa_offset 16
	.cfi_offset 6, -16
	movq	%rsp, %rbp
	.cfi_def_cfa_register 6
	subq	$16, %rsp
	movq	%rdi, -8(%rbp)
	movq	-8(%rbp), %rax
	movq	%rax, %rdi
	call	_ZNSaISt13_Rb_tree_nodeISt4pairIKNSt7__cxx1112basic_stringIcSt11char_traitsIcESaIcEEESt3mapIS6_dSt4lessIS6_ESaIS0_IS7_dEEEEEED2Ev
	nop
	leave
	.cfi_def_cfa 7, 8
	ret
	.cfi_endproc
.LFE8379:
	.size	_ZNSt8_Rb_treeINSt7__cxx1112basic_stringIcSt11char_traitsIcESaIcEEESt4pairIKS5_St3mapIS5_dSt4lessIS5_ESaIS6_IS7_dEEEESt10_Select1stISE_ESA_SaISE_EE13_Rb_tree_implISA_Lb1EED2Ev, .-_ZNSt8_Rb_treeINSt7__cxx1112basic_stringIcSt11char_traitsIcESaIcEEESt4pairIKS5_St3mapIS5_dSt4lessIS5_ESaIS6_IS7_dEEEESt10_Select1stISE_ESA_SaISE_EE13_Rb_tree_implISA_Lb1EED2Ev
	.weak	_ZNSt8_Rb_treeINSt7__cxx1112basic_stringIcSt11char_traitsIcESaIcEEESt4pairIKS5_St3mapIS5_dSt4lessIS5_ESaIS6_IS7_dEEEESt10_Select1stISE_ESA_SaISE_EE13_Rb_tree_implISA_Lb1EED1Ev
	.set	_ZNSt8_Rb_treeINSt7__cxx1112basic_stringIcSt11char_traitsIcESaIcEEESt4pairIKS5_St3mapIS5_dSt4lessIS5_ESaIS6_IS7_dEEEESt10_Select1stISE_ESA_SaISE_EE13_Rb_tree_implISA_Lb1EED1Ev,_ZNSt8_Rb_treeINSt7__cxx1112basic_stringIcSt11char_traitsIcESaIcEEESt4pairIKS5_St3mapIS5_dSt4lessIS5_ESaIS6_IS7_dEEEESt10_Select1stISE_ESA_SaISE_EE13_Rb_tree_implISA_Lb1EED2Ev
	.section	.text._ZNSt8_Rb_treeINSt7__cxx1112basic_stringIcSt11char_traitsIcESaIcEEESt4pairIKS5_St3mapIS5_dSt4lessIS5_ESaIS6_IS7_dEEEESt10_Select1stISE_ESA_SaISE_EEC2Ev,"axG",@progbits,_ZNSt8_Rb_treeINSt7__cxx1112basic_stringIcSt11char_traitsIcESaIcEEESt4pairIKS5_St3mapIS5_dSt4lessIS5_ESaIS6_IS7_dEEEESt10_Select1stISE_ESA_SaISE_EEC5Ev,comdat
	.align 2
	.weak	_ZNSt8_Rb_treeINSt7__cxx1112basic_stringIcSt11char_traitsIcESaIcEEESt4pairIKS5_St3mapIS5_dSt4lessIS5_ESaIS6_IS7_dEEEESt10_Select1stISE_ESA_SaISE_EEC2Ev
	.type	_ZNSt8_Rb_treeINSt7__cxx1112basic_stringIcSt11char_traitsIcESaIcEEESt4pairIKS5_St3mapIS5_dSt4lessIS5_ESaIS6_IS7_dEEEESt10_Select1stISE_ESA_SaISE_EEC2Ev, @function
_ZNSt8_Rb_treeINSt7__cxx1112basic_stringIcSt11char_traitsIcESaIcEEESt4pairIKS5_St3mapIS5_dSt4lessIS5_ESaIS6_IS7_dEEEESt10_Select1stISE_ESA_SaISE_EEC2Ev:
.LFB8381:
	.cfi_startproc
	endbr64
	pushq	%rbp
	.cfi_def_cfa_offset 16
	.cfi_offset 6, -16
	movq	%rsp, %rbp
	.cfi_def_cfa_register 6
	subq	$16, %rsp
	movq	%rdi, -8(%rbp)
	movq	-8(%rbp), %rax
	movq	%rax, %rdi
	call	_ZNSt8_Rb_treeINSt7__cxx1112basic_stringIcSt11char_traitsIcESaIcEEESt4pairIKS5_St3mapIS5_dSt4lessIS5_ESaIS6_IS7_dEEEESt10_Select1stISE_ESA_SaISE_EE13_Rb_tree_implISA_Lb1EEC1Ev
	nop
	leave
	.cfi_def_cfa 7, 8
	ret
	.cfi_endproc
.LFE8381:
	.size	_ZNSt8_Rb_treeINSt7__cxx1112basic_stringIcSt11char_traitsIcESaIcEEESt4pairIKS5_St3mapIS5_dSt4lessIS5_ESaIS6_IS7_dEEEESt10_Select1stISE_ESA_SaISE_EEC2Ev, .-_ZNSt8_Rb_treeINSt7__cxx1112basic_stringIcSt11char_traitsIcESaIcEEESt4pairIKS5_St3mapIS5_dSt4lessIS5_ESaIS6_IS7_dEEEESt10_Select1stISE_ESA_SaISE_EEC2Ev
	.weak	_ZNSt8_Rb_treeINSt7__cxx1112basic_stringIcSt11char_traitsIcESaIcEEESt4pairIKS5_St3mapIS5_dSt4lessIS5_ESaIS6_IS7_dEEEESt10_Select1stISE_ESA_SaISE_EEC1Ev
	.set	_ZNSt8_Rb_treeINSt7__cxx1112basic_stringIcSt11char_traitsIcESaIcEEESt4pairIKS5_St3mapIS5_dSt4lessIS5_ESaIS6_IS7_dEEEESt10_Select1stISE_ESA_SaISE_EEC1Ev,_ZNSt8_Rb_treeINSt7__cxx1112basic_stringIcSt11char_traitsIcESaIcEEESt4pairIKS5_St3mapIS5_dSt4lessIS5_ESaIS6_IS7_dEEEESt10_Select1stISE_ESA_SaISE_EEC2Ev
	.section	.text._ZNSt3mapINSt7__cxx1112basic_stringIcSt11char_traitsIcESaIcEEES_IS5_dSt4lessIS5_ESaISt4pairIKS5_dEEES7_SaIS8_IS9_SC_EEEC2Ev,"axG",@progbits,_ZNSt3mapINSt7__cxx1112basic_stringIcSt11char_traitsIcESaIcEEES_IS5_dSt4lessIS5_ESaISt4pairIKS5_dEEES7_SaIS8_IS9_SC_EEEC5Ev,comdat
	.align 2
	.weak	_ZNSt3mapINSt7__cxx1112basic_stringIcSt11char_traitsIcESaIcEEES_IS5_dSt4lessIS5_ESaISt4pairIKS5_dEEES7_SaIS8_IS9_SC_EEEC2Ev
	.type	_ZNSt3mapINSt7__cxx1112basic_stringIcSt11char_traitsIcESaIcEEES_IS5_dSt4lessIS5_ESaISt4pairIKS5_dEEES7_SaIS8_IS9_SC_EEEC2Ev, @function
_ZNSt3mapINSt7__cxx1112basic_stringIcSt11char_traitsIcESaIcEEES_IS5_dSt4lessIS5_ESaISt4pairIKS5_dEEES7_SaIS8_IS9_SC_EEEC2Ev:
.LFB8383:
	.cfi_startproc
	endbr64
	pushq	%rbp
	.cfi_def_cfa_offset 16
	.cfi_offset 6, -16
	movq	%rsp, %rbp
	.cfi_def_cfa_register 6
	subq	$16, %rsp
	movq	%rdi, -8(%rbp)
	movq	-8(%rbp), %rax
	movq	%rax, %rdi
	call	_ZNSt8_Rb_treeINSt7__cxx1112basic_stringIcSt11char_traitsIcESaIcEEESt4pairIKS5_St3mapIS5_dSt4lessIS5_ESaIS6_IS7_dEEEESt10_Select1stISE_ESA_SaISE_EEC1Ev
	nop
	leave
	.cfi_def_cfa 7, 8
	ret
	.cfi_endproc
.LFE8383:
	.size	_ZNSt3mapINSt7__cxx1112basic_stringIcSt11char_traitsIcESaIcEEES_IS5_dSt4lessIS5_ESaISt4pairIKS5_dEEES7_SaIS8_IS9_SC_EEEC2Ev, .-_ZNSt3mapINSt7__cxx1112basic_stringIcSt11char_traitsIcESaIcEEES_IS5_dSt4lessIS5_ESaISt4pairIKS5_dEEES7_SaIS8_IS9_SC_EEEC2Ev
	.weak	_ZNSt3mapINSt7__cxx1112basic_stringIcSt11char_traitsIcESaIcEEES_IS5_dSt4lessIS5_ESaISt4pairIKS5_dEEES7_SaIS8_IS9_SC_EEEC1Ev
	.set	_ZNSt3mapINSt7__cxx1112basic_stringIcSt11char_traitsIcESaIcEEES_IS5_dSt4lessIS5_ESaISt4pairIKS5_dEEES7_SaIS8_IS9_SC_EEEC1Ev,_ZNSt3mapINSt7__cxx1112basic_stringIcSt11char_traitsIcESaIcEEES_IS5_dSt4lessIS5_ESaISt4pairIKS5_dEEES7_SaIS8_IS9_SC_EEEC2Ev
	.section	.text._ZNSt3mapINSt7__cxx1112basic_stringIcSt11char_traitsIcESaIcEEES_IS5_dSt4lessIS5_ESaISt4pairIKS5_dEEES7_SaIS8_IS9_SC_EEED2Ev,"axG",@progbits,_ZNSt3mapINSt7__cxx1112basic_stringIcSt11char_traitsIcESaIcEEES_IS5_dSt4lessIS5_ESaISt4pairIKS5_dEEES7_SaIS8_IS9_SC_EEED5Ev,comdat
	.align 2
	.weak	_ZNSt3mapINSt7__cxx1112basic_stringIcSt11char_traitsIcESaIcEEES_IS5_dSt4lessIS5_ESaISt4pairIKS5_dEEES7_SaIS8_IS9_SC_EEED2Ev
	.type	_ZNSt3mapINSt7__cxx1112basic_stringIcSt11char_traitsIcESaIcEEES_IS5_dSt4lessIS5_ESaISt4pairIKS5_dEEES7_SaIS8_IS9_SC_EEED2Ev, @function
_ZNSt3mapINSt7__cxx1112basic_stringIcSt11char_traitsIcESaIcEEES_IS5_dSt4lessIS5_ESaISt4pairIKS5_dEEES7_SaIS8_IS9_SC_EEED2Ev:
.LFB8386:
	.cfi_startproc
	endbr64
	pushq	%rbp
	.cfi_def_cfa_offset 16
	.cfi_offset 6, -16
	movq	%rsp, %rbp
	.cfi_def_cfa_register 6
	subq	$16, %rsp
	movq	%rdi, -8(%rbp)
	movq	-8(%rbp), %rax
	movq	%rax, %rdi
	call	_ZNSt8_Rb_treeINSt7__cxx1112basic_stringIcSt11char_traitsIcESaIcEEESt4pairIKS5_St3mapIS5_dSt4lessIS5_ESaIS6_IS7_dEEEESt10_Select1stISE_ESA_SaISE_EED1Ev
	nop
	leave
	.cfi_def_cfa 7, 8
	ret
	.cfi_endproc
.LFE8386:
	.size	_ZNSt3mapINSt7__cxx1112basic_stringIcSt11char_traitsIcESaIcEEES_IS5_dSt4lessIS5_ESaISt4pairIKS5_dEEES7_SaIS8_IS9_SC_EEED2Ev, .-_ZNSt3mapINSt7__cxx1112basic_stringIcSt11char_traitsIcESaIcEEES_IS5_dSt4lessIS5_ESaISt4pairIKS5_dEEES7_SaIS8_IS9_SC_EEED2Ev
	.weak	_ZNSt3mapINSt7__cxx1112basic_stringIcSt11char_traitsIcESaIcEEES_IS5_dSt4lessIS5_ESaISt4pairIKS5_dEEES7_SaIS8_IS9_SC_EEED1Ev
	.set	_ZNSt3mapINSt7__cxx1112basic_stringIcSt11char_traitsIcESaIcEEES_IS5_dSt4lessIS5_ESaISt4pairIKS5_dEEES7_SaIS8_IS9_SC_EEED1Ev,_ZNSt3mapINSt7__cxx1112basic_stringIcSt11char_traitsIcESaIcEEES_IS5_dSt4lessIS5_ESaISt4pairIKS5_dEEES7_SaIS8_IS9_SC_EEED2Ev
	.text
	.align 2
	.globl	_ZN6ExpgenC2ESt6vectorIS0_IdSaIdEESaIS2_EEiS0_IP11GraphRecsysSaIS6_EES4_d
	.type	_ZN6ExpgenC2ESt6vectorIS0_IdSaIdEESaIS2_EEiS0_IP11GraphRecsysSaIS6_EES4_d, @function
_ZN6ExpgenC2ESt6vectorIS0_IdSaIdEESaIS2_EEiS0_IP11GraphRecsysSaIS6_EES4_d:
.LFB8388:
	.cfi_startproc
	.cfi_personality 0x9b,DW.ref.__gxx_personality_v0
	.cfi_lsda 0x1b,.LLSDA8388
	endbr64
	pushq	%rbp
	.cfi_def_cfa_offset 16
	.cfi_offset 6, -16
	movq	%rsp, %rbp
	.cfi_def_cfa_register 6
	pushq	%rbx
	subq	$56, %rsp
	.cfi_offset 3, -24
	movq	%rdi, -24(%rbp)
	movq	%rsi, -32(%rbp)
	movl	%edx, -36(%rbp)
	movq	%rcx, -48(%rbp)
	movq	%r8, -56(%rbp)
	movsd	%xmm0, -64(%rbp)
	movq	-24(%rbp), %rax
	movq	%rax, %rdi
	call	_ZNSt6vectorIS_IdSaIdEESaIS1_EEC1Ev
	movq	-24(%rbp), %rax
	addq	$32, %rax
	movq	%rax, %rdi
	call	_ZNSt6vectorIP11GraphRecsysSaIS1_EEC1Ev
	movq	-24(%rbp), %rax
	addq	$64, %rax
	movq	%rax, %rdi
	call	_ZNSt6vectorIS_IdSaIdEESaIS1_EEC1Ev
	movq	-24(%rbp), %rax
	addq	$104, %rax
	movq	%rax, %rdi
	call	_ZNSt3mapINSt7__cxx1112basic_stringIcSt11char_traitsIcESaIcEEES_IS5_dSt4lessIS5_ESaISt4pairIKS5_dEEES7_SaIS8_IS9_SC_EEEC1Ev
	movq	-24(%rbp), %rax
	movq	-32(%rbp), %rdx
	movq	%rdx, %rsi
	movq	%rax, %rdi
.LEHB0:
	call	_ZNSt6vectorIS_IdSaIdEESaIS1_EEaSERKS3_
	movq	-24(%rbp), %rax
	movl	-36(%rbp), %edx
	movl	%edx, 24(%rax)
	movq	-24(%rbp), %rax
	leaq	32(%rax), %rdx
	movq	-48(%rbp), %rax
	movq	%rax, %rsi
	movq	%rdx, %rdi
	call	_ZNSt6vectorIP11GraphRecsysSaIS1_EEaSERKS3_
	movq	-32(%rbp), %rax
	movl	$0, %esi
	movq	%rax, %rdi
	call	_ZNSt6vectorIS_IdSaIdEESaIS1_EEixEm
	movl	$0, %esi
	movq	%rax, %rdi
	call	_ZNSt6vectorIdSaIdEEixEm
	movsd	(%rax), %xmm0
	cvttsd2sil	%xmm0, %edx
	movq	-24(%rbp), %rax
	movl	%edx, 56(%rax)
	movq	-32(%rbp), %rax
	movq	%rax, %rdi
	call	_ZNKSt6vectorIS_IdSaIdEESaIS1_EE4sizeEv
	leaq	-1(%rax), %rdx
	movq	-32(%rbp), %rax
	movq	%rdx, %rsi
	movq	%rax, %rdi
	call	_ZNSt6vectorIS_IdSaIdEESaIS1_EEixEm
	movl	$0, %esi
	movq	%rax, %rdi
	call	_ZNSt6vectorIdSaIdEEixEm
	movsd	(%rax), %xmm0
	cvttsd2sil	%xmm0, %edx
	movq	-24(%rbp), %rax
	movl	%edx, 60(%rax)
	movq	-24(%rbp), %rax
	leaq	64(%rax), %rdx
	movq	-56(%rbp), %rax
	movq	%rax, %rsi
	movq	%rdx, %rdi
	call	_ZNSt6vectorIS_IdSaIdEESaIS1_EEaSERKS3_
.LEHE0:
	movq	-24(%rbp), %rax
	movsd	-64(%rbp), %xmm0
	movsd	%xmm0, 88(%rax)
	movsd	-64(%rbp), %xmm0
	movsd	.LC3(%rip), %xmm1
	divsd	%xmm1, %xmm0
	movq	-24(%rbp), %rax
	movsd	%xmm0, 96(%rax)
	jmp	.L45
.L44:
	endbr64
	movq	%rax, %rbx
	movq	-24(%rbp), %rax
	addq	$104, %rax
	movq	%rax, %rdi
	call	_ZNSt3mapINSt7__cxx1112basic_stringIcSt11char_traitsIcESaIcEEES_IS5_dSt4lessIS5_ESaISt4pairIKS5_dEEES7_SaIS8_IS9_SC_EEED1Ev
	movq	-24(%rbp), %rax
	addq	$64, %rax
	movq	%rax, %rdi
	call	_ZNSt6vectorIS_IdSaIdEESaIS1_EED1Ev
	movq	-24(%rbp), %rax
	addq	$32, %rax
	movq	%rax, %rdi
	call	_ZNSt6vectorIP11GraphRecsysSaIS1_EED1Ev
	movq	-24(%rbp), %rax
	movq	%rax, %rdi
	call	_ZNSt6vectorIS_IdSaIdEESaIS1_EED1Ev
	movq	%rbx, %rax
	movq	%rax, %rdi
.LEHB1:
	call	_Unwind_Resume@PLT
.LEHE1:
.L45:
	addq	$56, %rsp
	popq	%rbx
	popq	%rbp
	.cfi_def_cfa 7, 8
	ret
	.cfi_endproc
.LFE8388:
	.globl	__gxx_personality_v0
	.section	.gcc_except_table,"a",@progbits
.LLSDA8388:
	.byte	0xff
	.byte	0xff
	.byte	0x1
	.uleb128 .LLSDACSE8388-.LLSDACSB8388
.LLSDACSB8388:
	.uleb128 .LEHB0-.LFB8388
	.uleb128 .LEHE0-.LEHB0
	.uleb128 .L44-.LFB8388
	.uleb128 0
	.uleb128 .LEHB1-.LFB8388
	.uleb128 .LEHE1-.LEHB1
	.uleb128 0
	.uleb128 0
.LLSDACSE8388:
	.text
	.size	_ZN6ExpgenC2ESt6vectorIS0_IdSaIdEESaIS2_EEiS0_IP11GraphRecsysSaIS6_EES4_d, .-_ZN6ExpgenC2ESt6vectorIS0_IdSaIdEESaIS2_EEiS0_IP11GraphRecsysSaIS6_EES4_d
	.globl	_ZN6ExpgenC1ESt6vectorIS0_IdSaIdEESaIS2_EEiS0_IP11GraphRecsysSaIS6_EES4_d
	.set	_ZN6ExpgenC1ESt6vectorIS0_IdSaIdEESaIS2_EEiS0_IP11GraphRecsysSaIS6_EES4_d,_ZN6ExpgenC2ESt6vectorIS0_IdSaIdEESaIS2_EEiS0_IP11GraphRecsysSaIS6_EES4_d
	.section	.rodata
.LC4:
	.string	""
	.text
	.align 2
	.globl	_ZN6Expgen4saveENSt7__cxx1112basic_stringIcSt11char_traitsIcESaIcEEES5_
	.type	_ZN6Expgen4saveENSt7__cxx1112basic_stringIcSt11char_traitsIcESaIcEEES5_, @function
_ZN6Expgen4saveENSt7__cxx1112basic_stringIcSt11char_traitsIcESaIcEEES5_:
.LFB8390:
	.cfi_startproc
	.cfi_personality 0x9b,DW.ref.__gxx_personality_v0
	.cfi_lsda 0x1b,.LLSDA8390
	endbr64
	pushq	%rbp
	.cfi_def_cfa_offset 16
	.cfi_offset 6, -16
	movq	%rsp, %rbp
	.cfi_def_cfa_register 6
	pushq	%rbx
	subq	$232, %rsp
	.cfi_offset 3, -24
	movq	%rdi, -216(%rbp)
	movq	%rsi, -224(%rbp)
	movq	%rdx, -232(%rbp)
	movq	%fs:40, %rax
	movq	%rax, -24(%rbp)
	xorl	%eax, %eax
	movq	-232(%rbp), %rdx
	leaq	-160(%rbp), %rax
	movq	%rdx, %rsi
	movq	%rax, %rdi
.LEHB2:
	call	_ZNSt7__cxx1112basic_stringIcSt11char_traitsIcESaIcEEC1ERKS4_@PLT
.LEHE2:
	movq	-224(%rbp), %rdx
	leaq	-192(%rbp), %rax
	movq	%rdx, %rsi
	movq	%rax, %rdi
.LEHB3:
	call	_ZNSt7__cxx1112basic_stringIcSt11char_traitsIcESaIcEEC1ERKS4_@PLT
.LEHE3:
	leaq	-160(%rbp), %rdx
	leaq	-192(%rbp), %rcx
	leaq	-128(%rbp), %rax
	movq	%rcx, %rsi
	movq	%rax, %rdi
.LEHB4:
	call	_ZN3OutC1ENSt7__cxx1112basic_stringIcSt11char_traitsIcESaIcEEES5_@PLT
.LEHE4:
	leaq	-192(%rbp), %rax
	movq	%rax, %rdi
	call	_ZNSt7__cxx1112basic_stringIcSt11char_traitsIcESaIcEED1Ev@PLT
	leaq	-160(%rbp), %rax
	movq	%rax, %rdi
	call	_ZNSt7__cxx1112basic_stringIcSt11char_traitsIcESaIcEED1Ev@PLT
	leaq	-193(%rbp), %rax
	movq	%rax, %rdi
	call	_ZNSaIcEC1Ev@PLT
	leaq	-193(%rbp), %rdx
	leaq	-192(%rbp), %rax
	leaq	.LC4(%rip), %rsi
	movq	%rax, %rdi
.LEHB5:
	call	_ZNSt7__cxx1112basic_stringIcSt11char_traitsIcESaIcEEC1EPKcRKS3_@PLT
.LEHE5:
	leaq	-193(%rbp), %rax
	movq	%rax, %rdi
	call	_ZNSaIcED1Ev@PLT
	movq	-216(%rbp), %rax
	movq	%rax, %rdi
	call	_ZNKSt6vectorIS_IdSaIdEESaIS1_EE4sizeEv
	movq	%rax, %rdx
	leaq	-160(%rbp), %rax
	movq	%rdx, %rsi
	movq	%rax, %rdi
.LEHB6:
	call	_ZNSt7__cxx119to_stringEm
.LEHE6:
	leaq	-160(%rbp), %rdx
	leaq	-128(%rbp), %rax
	movq	%rdx, %rsi
	movq	%rax, %rdi
.LEHB7:
	call	_ZN3Out5writeENSt7__cxx1112basic_stringIcSt11char_traitsIcESaIcEEE@PLT
.LEHE7:
	leaq	-160(%rbp), %rax
	movq	%rax, %rdi
	call	_ZNSt7__cxx1112basic_stringIcSt11char_traitsIcESaIcEED1Ev@PLT
	movq	-216(%rbp), %rax
	addq	$32, %rax
	movq	%rax, %rdi
	call	_ZNKSt6vectorIP11GraphRecsysSaIS1_EE4sizeEv
	movq	%rax, %rdx
	leaq	-160(%rbp), %rax
	movq	%rdx, %rsi
	movq	%rax, %rdi
.LEHB8:
	call	_ZNSt7__cxx119to_stringEm
.LEHE8:
	leaq	-160(%rbp), %rdx
	leaq	-128(%rbp), %rax
	movq	%rdx, %rsi
	movq	%rax, %rdi
.LEHB9:
	call	_ZN3Out5writeENSt7__cxx1112basic_stringIcSt11char_traitsIcESaIcEEE@PLT
.LEHE9:
	leaq	-160(%rbp), %rax
	movq	%rax, %rdi
	call	_ZNSt7__cxx1112basic_stringIcSt11char_traitsIcESaIcEED1Ev@PLT
	movq	-216(%rbp), %rax
	movl	56(%rax), %edx
	leaq	-160(%rbp), %rax
	movl	%edx, %esi
	movq	%rax, %rdi
.LEHB10:
	call	_ZNSt7__cxx119to_stringEi
.LEHE10:
	leaq	-160(%rbp), %rdx
	leaq	-128(%rbp), %rax
	movq	%rdx, %rsi
	movq	%rax, %rdi
.LEHB11:
	call	_ZN3Out5writeENSt7__cxx1112basic_stringIcSt11char_traitsIcESaIcEEE@PLT
.LEHE11:
	leaq	-160(%rbp), %rax
	movq	%rax, %rdi
	call	_ZNSt7__cxx1112basic_stringIcSt11char_traitsIcESaIcEED1Ev@PLT
	movq	-216(%rbp), %rax
	movl	60(%rax), %edx
	leaq	-160(%rbp), %rax
	movl	%edx, %esi
	movq	%rax, %rdi
.LEHB12:
	call	_ZNSt7__cxx119to_stringEi
.LEHE12:
	leaq	-160(%rbp), %rdx
	leaq	-128(%rbp), %rax
	movq	%rdx, %rsi
	movq	%rax, %rdi
.LEHB13:
	call	_ZN3Out5writeENSt7__cxx1112basic_stringIcSt11char_traitsIcESaIcEEE@PLT
.LEHE13:
	leaq	-160(%rbp), %rax
	movq	%rax, %rdi
	call	_ZNSt7__cxx1112basic_stringIcSt11char_traitsIcESaIcEED1Ev@PLT
	leaq	-192(%rbp), %rax
	movq	%rax, %rdi
	call	_ZNSt7__cxx1112basic_stringIcSt11char_traitsIcESaIcEED1Ev@PLT
	leaq	-128(%rbp), %rax
	movq	%rax, %rdi
	call	_ZN3OutD1Ev@PLT
	nop
	movq	-24(%rbp), %rax
	xorq	%fs:40, %rax
	je	.L56
	jmp	.L65
.L58:
	endbr64
	movq	%rax, %rbx
	leaq	-192(%rbp), %rax
	movq	%rax, %rdi
	call	_ZNSt7__cxx1112basic_stringIcSt11char_traitsIcESaIcEED1Ev@PLT
	jmp	.L48
.L57:
	endbr64
	movq	%rax, %rbx
.L48:
	leaq	-160(%rbp), %rax
	movq	%rax, %rdi
	call	_ZNSt7__cxx1112basic_stringIcSt11char_traitsIcESaIcEED1Ev@PLT
	movq	%rbx, %rax
	movq	%rax, %rdi
.LEHB14:
	call	_Unwind_Resume@PLT
.L59:
	endbr64
	movq	%rax, %rbx
	leaq	-193(%rbp), %rax
	movq	%rax, %rdi
	call	_ZNSaIcED1Ev@PLT
	jmp	.L50
.L61:
	endbr64
	movq	%rax, %rbx
	leaq	-160(%rbp), %rax
	movq	%rax, %rdi
	call	_ZNSt7__cxx1112basic_stringIcSt11char_traitsIcESaIcEED1Ev@PLT
	jmp	.L52
.L62:
	endbr64
	movq	%rax, %rbx
	leaq	-160(%rbp), %rax
	movq	%rax, %rdi
	call	_ZNSt7__cxx1112basic_stringIcSt11char_traitsIcESaIcEED1Ev@PLT
	jmp	.L52
.L63:
	endbr64
	movq	%rax, %rbx
	leaq	-160(%rbp), %rax
	movq	%rax, %rdi
	call	_ZNSt7__cxx1112basic_stringIcSt11char_traitsIcESaIcEED1Ev@PLT
	jmp	.L52
.L64:
	endbr64
	movq	%rax, %rbx
	leaq	-160(%rbp), %rax
	movq	%rax, %rdi
	call	_ZNSt7__cxx1112basic_stringIcSt11char_traitsIcESaIcEED1Ev@PLT
	jmp	.L52
.L60:
	endbr64
	movq	%rax, %rbx
.L52:
	leaq	-192(%rbp), %rax
	movq	%rax, %rdi
	call	_ZNSt7__cxx1112basic_stringIcSt11char_traitsIcESaIcEED1Ev@PLT
.L50:
	leaq	-128(%rbp), %rax
	movq	%rax, %rdi
	call	_ZN3OutD1Ev@PLT
	movq	%rbx, %rax
	movq	%rax, %rdi
	call	_Unwind_Resume@PLT
.LEHE14:
.L65:
	call	__stack_chk_fail@PLT
.L56:
	addq	$232, %rsp
	popq	%rbx
	popq	%rbp
	.cfi_def_cfa 7, 8
	ret
	.cfi_endproc
.LFE8390:
	.section	.gcc_except_table
.LLSDA8390:
	.byte	0xff
	.byte	0xff
	.byte	0x1
	.uleb128 .LLSDACSE8390-.LLSDACSB8390
.LLSDACSB8390:
	.uleb128 .LEHB2-.LFB8390
	.uleb128 .LEHE2-.LEHB2
	.uleb128 0
	.uleb128 0
	.uleb128 .LEHB3-.LFB8390
	.uleb128 .LEHE3-.LEHB3
	.uleb128 .L57-.LFB8390
	.uleb128 0
	.uleb128 .LEHB4-.LFB8390
	.uleb128 .LEHE4-.LEHB4
	.uleb128 .L58-.LFB8390
	.uleb128 0
	.uleb128 .LEHB5-.LFB8390
	.uleb128 .LEHE5-.LEHB5
	.uleb128 .L59-.LFB8390
	.uleb128 0
	.uleb128 .LEHB6-.LFB8390
	.uleb128 .LEHE6-.LEHB6
	.uleb128 .L60-.LFB8390
	.uleb128 0
	.uleb128 .LEHB7-.LFB8390
	.uleb128 .LEHE7-.LEHB7
	.uleb128 .L61-.LFB8390
	.uleb128 0
	.uleb128 .LEHB8-.LFB8390
	.uleb128 .LEHE8-.LEHB8
	.uleb128 .L60-.LFB8390
	.uleb128 0
	.uleb128 .LEHB9-.LFB8390
	.uleb128 .LEHE9-.LEHB9
	.uleb128 .L62-.LFB8390
	.uleb128 0
	.uleb128 .LEHB10-.LFB8390
	.uleb128 .LEHE10-.LEHB10
	.uleb128 .L60-.LFB8390
	.uleb128 0
	.uleb128 .LEHB11-.LFB8390
	.uleb128 .LEHE11-.LEHB11
	.uleb128 .L63-.LFB8390
	.uleb128 0
	.uleb128 .LEHB12-.LFB8390
	.uleb128 .LEHE12-.LEHB12
	.uleb128 .L60-.LFB8390
	.uleb128 0
	.uleb128 .LEHB13-.LFB8390
	.uleb128 .LEHE13-.LEHB13
	.uleb128 .L64-.LFB8390
	.uleb128 0
	.uleb128 .LEHB14-.LFB8390
	.uleb128 .LEHE14-.LEHB14
	.uleb128 0
	.uleb128 0
.LLSDACSE8390:
	.text
	.size	_ZN6Expgen4saveENSt7__cxx1112basic_stringIcSt11char_traitsIcESaIcEEES5_, .-_ZN6Expgen4saveENSt7__cxx1112basic_stringIcSt11char_traitsIcESaIcEEES5_
	.section	.text._ZNSt3mapINSt7__cxx1112basic_stringIcSt11char_traitsIcESaIcEEES_IS5_dSt4lessIS5_ESaISt4pairIKS5_dEEES7_SaIS8_IS9_SC_EEEC2ERKSF_,"axG",@progbits,_ZNSt3mapINSt7__cxx1112basic_stringIcSt11char_traitsIcESaIcEEES_IS5_dSt4lessIS5_ESaISt4pairIKS5_dEEES7_SaIS8_IS9_SC_EEEC5ERKSF_,comdat
	.align 2
	.weak	_ZNSt3mapINSt7__cxx1112basic_stringIcSt11char_traitsIcESaIcEEES_IS5_dSt4lessIS5_ESaISt4pairIKS5_dEEES7_SaIS8_IS9_SC_EEEC2ERKSF_
	.type	_ZNSt3mapINSt7__cxx1112basic_stringIcSt11char_traitsIcESaIcEEES_IS5_dSt4lessIS5_ESaISt4pairIKS5_dEEES7_SaIS8_IS9_SC_EEEC2ERKSF_, @function
_ZNSt3mapINSt7__cxx1112basic_stringIcSt11char_traitsIcESaIcEEES_IS5_dSt4lessIS5_ESaISt4pairIKS5_dEEES7_SaIS8_IS9_SC_EEEC2ERKSF_:
.LFB8396:
	.cfi_startproc
	endbr64
	pushq	%rbp
	.cfi_def_cfa_offset 16
	.cfi_offset 6, -16
	movq	%rsp, %rbp
	.cfi_def_cfa_register 6
	subq	$16, %rsp
	movq	%rdi, -8(%rbp)
	movq	%rsi, -16(%rbp)
	movq	-8(%rbp), %rax
	movq	-16(%rbp), %rdx
	movq	%rdx, %rsi
	movq	%rax, %rdi
	call	_ZNSt8_Rb_treeINSt7__cxx1112basic_stringIcSt11char_traitsIcESaIcEEESt4pairIKS5_St3mapIS5_dSt4lessIS5_ESaIS6_IS7_dEEEESt10_Select1stISE_ESA_SaISE_EEC1ERKSI_
	nop
	leave
	.cfi_def_cfa 7, 8
	ret
	.cfi_endproc
.LFE8396:
	.size	_ZNSt3mapINSt7__cxx1112basic_stringIcSt11char_traitsIcESaIcEEES_IS5_dSt4lessIS5_ESaISt4pairIKS5_dEEES7_SaIS8_IS9_SC_EEEC2ERKSF_, .-_ZNSt3mapINSt7__cxx1112basic_stringIcSt11char_traitsIcESaIcEEES_IS5_dSt4lessIS5_ESaISt4pairIKS5_dEEES7_SaIS8_IS9_SC_EEEC2ERKSF_
	.weak	_ZNSt3mapINSt7__cxx1112basic_stringIcSt11char_traitsIcESaIcEEES_IS5_dSt4lessIS5_ESaISt4pairIKS5_dEEES7_SaIS8_IS9_SC_EEEC1ERKSF_
	.set	_ZNSt3mapINSt7__cxx1112basic_stringIcSt11char_traitsIcESaIcEEES_IS5_dSt4lessIS5_ESaISt4pairIKS5_dEEES7_SaIS8_IS9_SC_EEEC1ERKSF_,_ZNSt3mapINSt7__cxx1112basic_stringIcSt11char_traitsIcESaIcEEES_IS5_dSt4lessIS5_ESaISt4pairIKS5_dEEES7_SaIS8_IS9_SC_EEEC2ERKSF_
	.text
	.align 2
	.globl	_ZN6Expgen15get_exp_resultsB5cxx11Ev
	.type	_ZN6Expgen15get_exp_resultsB5cxx11Ev, @function
_ZN6Expgen15get_exp_resultsB5cxx11Ev:
.LFB8394:
	.cfi_startproc
	endbr64
	pushq	%rbp
	.cfi_def_cfa_offset 16
	.cfi_offset 6, -16
	movq	%rsp, %rbp
	.cfi_def_cfa_register 6
	subq	$16, %rsp
	movq	%rdi, -8(%rbp)
	movq	%rsi, -16(%rbp)
	movq	-16(%rbp), %rax
	leaq	104(%rax), %rdx
	movq	-8(%rbp), %rax
	movq	%rdx, %rsi
	movq	%rax, %rdi
	call	_ZNSt3mapINSt7__cxx1112basic_stringIcSt11char_traitsIcESaIcEEES_IS5_dSt4lessIS5_ESaISt4pairIKS5_dEEES7_SaIS8_IS9_SC_EEEC1ERKSF_
	movq	-8(%rbp), %rax
	leave
	.cfi_def_cfa 7, 8
	ret
	.cfi_endproc
.LFE8394:
	.size	_ZN6Expgen15get_exp_resultsB5cxx11Ev, .-_ZN6Expgen15get_exp_resultsB5cxx11Ev
	.section	.text._ZNSt12_Vector_baseIiSaIiEE12_Vector_implD2Ev,"axG",@progbits,_ZNSt12_Vector_baseIiSaIiEE12_Vector_implD5Ev,comdat
	.align 2
	.weak	_ZNSt12_Vector_baseIiSaIiEE12_Vector_implD2Ev
	.type	_ZNSt12_Vector_baseIiSaIiEE12_Vector_implD2Ev, @function
_ZNSt12_Vector_baseIiSaIiEE12_Vector_implD2Ev:
.LFB8402:
	.cfi_startproc
	endbr64
	pushq	%rbp
	.cfi_def_cfa_offset 16
	.cfi_offset 6, -16
	movq	%rsp, %rbp
	.cfi_def_cfa_register 6
	subq	$16, %rsp
	movq	%rdi, -8(%rbp)
	movq	-8(%rbp), %rax
	movq	%rax, %rdi
	call	_ZNSaIiED2Ev
	nop
	leave
	.cfi_def_cfa 7, 8
	ret
	.cfi_endproc
.LFE8402:
	.size	_ZNSt12_Vector_baseIiSaIiEE12_Vector_implD2Ev, .-_ZNSt12_Vector_baseIiSaIiEE12_Vector_implD2Ev
	.weak	_ZNSt12_Vector_baseIiSaIiEE12_Vector_implD1Ev
	.set	_ZNSt12_Vector_baseIiSaIiEE12_Vector_implD1Ev,_ZNSt12_Vector_baseIiSaIiEE12_Vector_implD2Ev
	.section	.text._ZNSt12_Vector_baseIiSaIiEEC2Ev,"axG",@progbits,_ZNSt12_Vector_baseIiSaIiEEC5Ev,comdat
	.align 2
	.weak	_ZNSt12_Vector_baseIiSaIiEEC2Ev
	.type	_ZNSt12_Vector_baseIiSaIiEEC2Ev, @function
_ZNSt12_Vector_baseIiSaIiEEC2Ev:
.LFB8404:
	.cfi_startproc
	endbr64
	pushq	%rbp
	.cfi_def_cfa_offset 16
	.cfi_offset 6, -16
	movq	%rsp, %rbp
	.cfi_def_cfa_register 6
	subq	$16, %rsp
	movq	%rdi, -8(%rbp)
	movq	-8(%rbp), %rax
	movq	%rax, %rdi
	call	_ZNSt12_Vector_baseIiSaIiEE12_Vector_implC1Ev
	nop
	leave
	.cfi_def_cfa 7, 8
	ret
	.cfi_endproc
.LFE8404:
	.size	_ZNSt12_Vector_baseIiSaIiEEC2Ev, .-_ZNSt12_Vector_baseIiSaIiEEC2Ev
	.weak	_ZNSt12_Vector_baseIiSaIiEEC1Ev
	.set	_ZNSt12_Vector_baseIiSaIiEEC1Ev,_ZNSt12_Vector_baseIiSaIiEEC2Ev
	.section	.text._ZNSt6vectorIiSaIiEEC2Ev,"axG",@progbits,_ZNSt6vectorIiSaIiEEC5Ev,comdat
	.align 2
	.weak	_ZNSt6vectorIiSaIiEEC2Ev
	.type	_ZNSt6vectorIiSaIiEEC2Ev, @function
_ZNSt6vectorIiSaIiEEC2Ev:
.LFB8406:
	.cfi_startproc
	endbr64
	pushq	%rbp
	.cfi_def_cfa_offset 16
	.cfi_offset 6, -16
	movq	%rsp, %rbp
	.cfi_def_cfa_register 6
	subq	$16, %rsp
	movq	%rdi, -8(%rbp)
	movq	-8(%rbp), %rax
	movq	%rax, %rdi
	call	_ZNSt12_Vector_baseIiSaIiEEC2Ev
	nop
	leave
	.cfi_def_cfa 7, 8
	ret
	.cfi_endproc
.LFE8406:
	.size	_ZNSt6vectorIiSaIiEEC2Ev, .-_ZNSt6vectorIiSaIiEEC2Ev
	.weak	_ZNSt6vectorIiSaIiEEC1Ev
	.set	_ZNSt6vectorIiSaIiEEC1Ev,_ZNSt6vectorIiSaIiEEC2Ev
	.section	.text._ZNSt12_Vector_baseIdSaIdEE12_Vector_implD2Ev,"axG",@progbits,_ZNSt12_Vector_baseIdSaIdEE12_Vector_implD5Ev,comdat
	.align 2
	.weak	_ZNSt12_Vector_baseIdSaIdEE12_Vector_implD2Ev
	.type	_ZNSt12_Vector_baseIdSaIdEE12_Vector_implD2Ev, @function
_ZNSt12_Vector_baseIdSaIdEE12_Vector_implD2Ev:
.LFB8411:
	.cfi_startproc
	endbr64
	pushq	%rbp
	.cfi_def_cfa_offset 16
	.cfi_offset 6, -16
	movq	%rsp, %rbp
	.cfi_def_cfa_register 6
	subq	$16, %rsp
	movq	%rdi, -8(%rbp)
	movq	-8(%rbp), %rax
	movq	%rax, %rdi
	call	_ZNSaIdED2Ev
	nop
	leave
	.cfi_def_cfa 7, 8
	ret
	.cfi_endproc
.LFE8411:
	.size	_ZNSt12_Vector_baseIdSaIdEE12_Vector_implD2Ev, .-_ZNSt12_Vector_baseIdSaIdEE12_Vector_implD2Ev
	.weak	_ZNSt12_Vector_baseIdSaIdEE12_Vector_implD1Ev
	.set	_ZNSt12_Vector_baseIdSaIdEE12_Vector_implD1Ev,_ZNSt12_Vector_baseIdSaIdEE12_Vector_implD2Ev
	.section	.text._ZNSt12_Vector_baseIdSaIdEEC2Ev,"axG",@progbits,_ZNSt12_Vector_baseIdSaIdEEC5Ev,comdat
	.align 2
	.weak	_ZNSt12_Vector_baseIdSaIdEEC2Ev
	.type	_ZNSt12_Vector_baseIdSaIdEEC2Ev, @function
_ZNSt12_Vector_baseIdSaIdEEC2Ev:
.LFB8413:
	.cfi_startproc
	endbr64
	pushq	%rbp
	.cfi_def_cfa_offset 16
	.cfi_offset 6, -16
	movq	%rsp, %rbp
	.cfi_def_cfa_register 6
	subq	$16, %rsp
	movq	%rdi, -8(%rbp)
	movq	-8(%rbp), %rax
	movq	%rax, %rdi
	call	_ZNSt12_Vector_baseIdSaIdEE12_Vector_implC1Ev
	nop
	leave
	.cfi_def_cfa 7, 8
	ret
	.cfi_endproc
.LFE8413:
	.size	_ZNSt12_Vector_baseIdSaIdEEC2Ev, .-_ZNSt12_Vector_baseIdSaIdEEC2Ev
	.weak	_ZNSt12_Vector_baseIdSaIdEEC1Ev
	.set	_ZNSt12_Vector_baseIdSaIdEEC1Ev,_ZNSt12_Vector_baseIdSaIdEEC2Ev
	.section	.text._ZNSt6vectorIdSaIdEEC2Ev,"axG",@progbits,_ZNSt6vectorIdSaIdEEC5Ev,comdat
	.align 2
	.weak	_ZNSt6vectorIdSaIdEEC2Ev
	.type	_ZNSt6vectorIdSaIdEEC2Ev, @function
_ZNSt6vectorIdSaIdEEC2Ev:
.LFB8415:
	.cfi_startproc
	endbr64
	pushq	%rbp
	.cfi_def_cfa_offset 16
	.cfi_offset 6, -16
	movq	%rsp, %rbp
	.cfi_def_cfa_register 6
	subq	$16, %rsp
	movq	%rdi, -8(%rbp)
	movq	-8(%rbp), %rax
	movq	%rax, %rdi
	call	_ZNSt12_Vector_baseIdSaIdEEC2Ev
	nop
	leave
	.cfi_def_cfa 7, 8
	ret
	.cfi_endproc
.LFE8415:
	.size	_ZNSt6vectorIdSaIdEEC2Ev, .-_ZNSt6vectorIdSaIdEEC2Ev
	.weak	_ZNSt6vectorIdSaIdEEC1Ev
	.set	_ZNSt6vectorIdSaIdEEC1Ev,_ZNSt6vectorIdSaIdEEC2Ev
	.section	.text._ZNSt8_Rb_treeIiSt4pairIKiSt6vectorIiSaIiEEESt10_Select1stIS5_ESt4lessIiESaIS5_EE13_Rb_tree_implIS9_Lb1EED2Ev,"axG",@progbits,_ZNSt8_Rb_treeIiSt4pairIKiSt6vectorIiSaIiEEESt10_Select1stIS5_ESt4lessIiESaIS5_EE13_Rb_tree_implIS9_Lb1EED5Ev,comdat
	.align 2
	.weak	_ZNSt8_Rb_treeIiSt4pairIKiSt6vectorIiSaIiEEESt10_Select1stIS5_ESt4lessIiESaIS5_EE13_Rb_tree_implIS9_Lb1EED2Ev
	.type	_ZNSt8_Rb_treeIiSt4pairIKiSt6vectorIiSaIiEEESt10_Select1stIS5_ESt4lessIiESaIS5_EE13_Rb_tree_implIS9_Lb1EED2Ev, @function
_ZNSt8_Rb_treeIiSt4pairIKiSt6vectorIiSaIiEEESt10_Select1stIS5_ESt4lessIiESaIS5_EE13_Rb_tree_implIS9_Lb1EED2Ev:
.LFB8420:
	.cfi_startproc
	endbr64
	pushq	%rbp
	.cfi_def_cfa_offset 16
	.cfi_offset 6, -16
	movq	%rsp, %rbp
	.cfi_def_cfa_register 6
	subq	$16, %rsp
	movq	%rdi, -8(%rbp)
	movq	-8(%rbp), %rax
	movq	%rax, %rdi
	call	_ZNSaISt13_Rb_tree_nodeISt4pairIKiSt6vectorIiSaIiEEEEED2Ev
	nop
	leave
	.cfi_def_cfa 7, 8
	ret
	.cfi_endproc
.LFE8420:
	.size	_ZNSt8_Rb_treeIiSt4pairIKiSt6vectorIiSaIiEEESt10_Select1stIS5_ESt4lessIiESaIS5_EE13_Rb_tree_implIS9_Lb1EED2Ev, .-_ZNSt8_Rb_treeIiSt4pairIKiSt6vectorIiSaIiEEESt10_Select1stIS5_ESt4lessIiESaIS5_EE13_Rb_tree_implIS9_Lb1EED2Ev
	.weak	_ZNSt8_Rb_treeIiSt4pairIKiSt6vectorIiSaIiEEESt10_Select1stIS5_ESt4lessIiESaIS5_EE13_Rb_tree_implIS9_Lb1EED1Ev
	.set	_ZNSt8_Rb_treeIiSt4pairIKiSt6vectorIiSaIiEEESt10_Select1stIS5_ESt4lessIiESaIS5_EE13_Rb_tree_implIS9_Lb1EED1Ev,_ZNSt8_Rb_treeIiSt4pairIKiSt6vectorIiSaIiEEESt10_Select1stIS5_ESt4lessIiESaIS5_EE13_Rb_tree_implIS9_Lb1EED2Ev
	.section	.text._ZNSt8_Rb_treeIiSt4pairIKiSt6vectorIiSaIiEEESt10_Select1stIS5_ESt4lessIiESaIS5_EEC2Ev,"axG",@progbits,_ZNSt8_Rb_treeIiSt4pairIKiSt6vectorIiSaIiEEESt10_Select1stIS5_ESt4lessIiESaIS5_EEC5Ev,comdat
	.align 2
	.weak	_ZNSt8_Rb_treeIiSt4pairIKiSt6vectorIiSaIiEEESt10_Select1stIS5_ESt4lessIiESaIS5_EEC2Ev
	.type	_ZNSt8_Rb_treeIiSt4pairIKiSt6vectorIiSaIiEEESt10_Select1stIS5_ESt4lessIiESaIS5_EEC2Ev, @function
_ZNSt8_Rb_treeIiSt4pairIKiSt6vectorIiSaIiEEESt10_Select1stIS5_ESt4lessIiESaIS5_EEC2Ev:
.LFB8422:
	.cfi_startproc
	endbr64
	pushq	%rbp
	.cfi_def_cfa_offset 16
	.cfi_offset 6, -16
	movq	%rsp, %rbp
	.cfi_def_cfa_register 6
	subq	$16, %rsp
	movq	%rdi, -8(%rbp)
	movq	-8(%rbp), %rax
	movq	%rax, %rdi
	call	_ZNSt8_Rb_treeIiSt4pairIKiSt6vectorIiSaIiEEESt10_Select1stIS5_ESt4lessIiESaIS5_EE13_Rb_tree_implIS9_Lb1EEC1Ev
	nop
	leave
	.cfi_def_cfa 7, 8
	ret
	.cfi_endproc
.LFE8422:
	.size	_ZNSt8_Rb_treeIiSt4pairIKiSt6vectorIiSaIiEEESt10_Select1stIS5_ESt4lessIiESaIS5_EEC2Ev, .-_ZNSt8_Rb_treeIiSt4pairIKiSt6vectorIiSaIiEEESt10_Select1stIS5_ESt4lessIiESaIS5_EEC2Ev
	.weak	_ZNSt8_Rb_treeIiSt4pairIKiSt6vectorIiSaIiEEESt10_Select1stIS5_ESt4lessIiESaIS5_EEC1Ev
	.set	_ZNSt8_Rb_treeIiSt4pairIKiSt6vectorIiSaIiEEESt10_Select1stIS5_ESt4lessIiESaIS5_EEC1Ev,_ZNSt8_Rb_treeIiSt4pairIKiSt6vectorIiSaIiEEESt10_Select1stIS5_ESt4lessIiESaIS5_EEC2Ev
	.section	.text._ZNSt3mapIiSt6vectorIiSaIiEESt4lessIiESaISt4pairIKiS2_EEEC2Ev,"axG",@progbits,_ZNSt3mapIiSt6vectorIiSaIiEESt4lessIiESaISt4pairIKiS2_EEEC5Ev,comdat
	.align 2
	.weak	_ZNSt3mapIiSt6vectorIiSaIiEESt4lessIiESaISt4pairIKiS2_EEEC2Ev
	.type	_ZNSt3mapIiSt6vectorIiSaIiEESt4lessIiESaISt4pairIKiS2_EEEC2Ev, @function
_ZNSt3mapIiSt6vectorIiSaIiEESt4lessIiESaISt4pairIKiS2_EEEC2Ev:
.LFB8424:
	.cfi_startproc
	endbr64
	pushq	%rbp
	.cfi_def_cfa_offset 16
	.cfi_offset 6, -16
	movq	%rsp, %rbp
	.cfi_def_cfa_register 6
	subq	$16, %rsp
	movq	%rdi, -8(%rbp)
	movq	-8(%rbp), %rax
	movq	%rax, %rdi
	call	_ZNSt8_Rb_treeIiSt4pairIKiSt6vectorIiSaIiEEESt10_Select1stIS5_ESt4lessIiESaIS5_EEC1Ev
	nop
	leave
	.cfi_def_cfa 7, 8
	ret
	.cfi_endproc
.LFE8424:
	.size	_ZNSt3mapIiSt6vectorIiSaIiEESt4lessIiESaISt4pairIKiS2_EEEC2Ev, .-_ZNSt3mapIiSt6vectorIiSaIiEESt4lessIiESaISt4pairIKiS2_EEEC2Ev
	.weak	_ZNSt3mapIiSt6vectorIiSaIiEESt4lessIiESaISt4pairIKiS2_EEEC1Ev
	.set	_ZNSt3mapIiSt6vectorIiSaIiEESt4lessIiESaISt4pairIKiS2_EEEC1Ev,_ZNSt3mapIiSt6vectorIiSaIiEESt4lessIiESaISt4pairIKiS2_EEEC2Ev
	.section	.text._ZNSt3mapIiSt6vectorIiSaIiEESt4lessIiESaISt4pairIKiS2_EEED2Ev,"axG",@progbits,_ZNSt3mapIiSt6vectorIiSaIiEESt4lessIiESaISt4pairIKiS2_EEED5Ev,comdat
	.align 2
	.weak	_ZNSt3mapIiSt6vectorIiSaIiEESt4lessIiESaISt4pairIKiS2_EEED2Ev
	.type	_ZNSt3mapIiSt6vectorIiSaIiEESt4lessIiESaISt4pairIKiS2_EEED2Ev, @function
_ZNSt3mapIiSt6vectorIiSaIiEESt4lessIiESaISt4pairIKiS2_EEED2Ev:
.LFB8427:
	.cfi_startproc
	endbr64
	pushq	%rbp
	.cfi_def_cfa_offset 16
	.cfi_offset 6, -16
	movq	%rsp, %rbp
	.cfi_def_cfa_register 6
	subq	$16, %rsp
	movq	%rdi, -8(%rbp)
	movq	-8(%rbp), %rax
	movq	%rax, %rdi
	call	_ZNSt8_Rb_treeIiSt4pairIKiSt6vectorIiSaIiEEESt10_Select1stIS5_ESt4lessIiESaIS5_EED1Ev
	nop
	leave
	.cfi_def_cfa 7, 8
	ret
	.cfi_endproc
.LFE8427:
	.size	_ZNSt3mapIiSt6vectorIiSaIiEESt4lessIiESaISt4pairIKiS2_EEED2Ev, .-_ZNSt3mapIiSt6vectorIiSaIiEESt4lessIiESaISt4pairIKiS2_EEED2Ev
	.weak	_ZNSt3mapIiSt6vectorIiSaIiEESt4lessIiESaISt4pairIKiS2_EEED1Ev
	.set	_ZNSt3mapIiSt6vectorIiSaIiEESt4lessIiESaISt4pairIKiS2_EEED1Ev,_ZNSt3mapIiSt6vectorIiSaIiEESt4lessIiESaISt4pairIKiS2_EEED2Ev
	.section	.text._ZNSt8_Rb_treeIiSt4pairIKiiESt10_Select1stIS2_ESt4lessIiESaIS2_EE13_Rb_tree_implIS6_Lb1EED2Ev,"axG",@progbits,_ZNSt8_Rb_treeIiSt4pairIKiiESt10_Select1stIS2_ESt4lessIiESaIS2_EE13_Rb_tree_implIS6_Lb1EED5Ev,comdat
	.align 2
	.weak	_ZNSt8_Rb_treeIiSt4pairIKiiESt10_Select1stIS2_ESt4lessIiESaIS2_EE13_Rb_tree_implIS6_Lb1EED2Ev
	.type	_ZNSt8_Rb_treeIiSt4pairIKiiESt10_Select1stIS2_ESt4lessIiESaIS2_EE13_Rb_tree_implIS6_Lb1EED2Ev, @function
_ZNSt8_Rb_treeIiSt4pairIKiiESt10_Select1stIS2_ESt4lessIiESaIS2_EE13_Rb_tree_implIS6_Lb1EED2Ev:
.LFB8432:
	.cfi_startproc
	endbr64
	pushq	%rbp
	.cfi_def_cfa_offset 16
	.cfi_offset 6, -16
	movq	%rsp, %rbp
	.cfi_def_cfa_register 6
	subq	$16, %rsp
	movq	%rdi, -8(%rbp)
	movq	-8(%rbp), %rax
	movq	%rax, %rdi
	call	_ZNSaISt13_Rb_tree_nodeISt4pairIKiiEEED2Ev
	nop
	leave
	.cfi_def_cfa 7, 8
	ret
	.cfi_endproc
.LFE8432:
	.size	_ZNSt8_Rb_treeIiSt4pairIKiiESt10_Select1stIS2_ESt4lessIiESaIS2_EE13_Rb_tree_implIS6_Lb1EED2Ev, .-_ZNSt8_Rb_treeIiSt4pairIKiiESt10_Select1stIS2_ESt4lessIiESaIS2_EE13_Rb_tree_implIS6_Lb1EED2Ev
	.weak	_ZNSt8_Rb_treeIiSt4pairIKiiESt10_Select1stIS2_ESt4lessIiESaIS2_EE13_Rb_tree_implIS6_Lb1EED1Ev
	.set	_ZNSt8_Rb_treeIiSt4pairIKiiESt10_Select1stIS2_ESt4lessIiESaIS2_EE13_Rb_tree_implIS6_Lb1EED1Ev,_ZNSt8_Rb_treeIiSt4pairIKiiESt10_Select1stIS2_ESt4lessIiESaIS2_EE13_Rb_tree_implIS6_Lb1EED2Ev
	.section	.text._ZNSt8_Rb_treeIiSt4pairIKiiESt10_Select1stIS2_ESt4lessIiESaIS2_EEC2Ev,"axG",@progbits,_ZNSt8_Rb_treeIiSt4pairIKiiESt10_Select1stIS2_ESt4lessIiESaIS2_EEC5Ev,comdat
	.align 2
	.weak	_ZNSt8_Rb_treeIiSt4pairIKiiESt10_Select1stIS2_ESt4lessIiESaIS2_EEC2Ev
	.type	_ZNSt8_Rb_treeIiSt4pairIKiiESt10_Select1stIS2_ESt4lessIiESaIS2_EEC2Ev, @function
_ZNSt8_Rb_treeIiSt4pairIKiiESt10_Select1stIS2_ESt4lessIiESaIS2_EEC2Ev:
.LFB8434:
	.cfi_startproc
	endbr64
	pushq	%rbp
	.cfi_def_cfa_offset 16
	.cfi_offset 6, -16
	movq	%rsp, %rbp
	.cfi_def_cfa_register 6
	subq	$16, %rsp
	movq	%rdi, -8(%rbp)
	movq	-8(%rbp), %rax
	movq	%rax, %rdi
	call	_ZNSt8_Rb_treeIiSt4pairIKiiESt10_Select1stIS2_ESt4lessIiESaIS2_EE13_Rb_tree_implIS6_Lb1EEC1Ev
	nop
	leave
	.cfi_def_cfa 7, 8
	ret
	.cfi_endproc
.LFE8434:
	.size	_ZNSt8_Rb_treeIiSt4pairIKiiESt10_Select1stIS2_ESt4lessIiESaIS2_EEC2Ev, .-_ZNSt8_Rb_treeIiSt4pairIKiiESt10_Select1stIS2_ESt4lessIiESaIS2_EEC2Ev
	.weak	_ZNSt8_Rb_treeIiSt4pairIKiiESt10_Select1stIS2_ESt4lessIiESaIS2_EEC1Ev
	.set	_ZNSt8_Rb_treeIiSt4pairIKiiESt10_Select1stIS2_ESt4lessIiESaIS2_EEC1Ev,_ZNSt8_Rb_treeIiSt4pairIKiiESt10_Select1stIS2_ESt4lessIiESaIS2_EEC2Ev
	.section	.text._ZNSt3mapIiiSt4lessIiESaISt4pairIKiiEEEC2Ev,"axG",@progbits,_ZNSt3mapIiiSt4lessIiESaISt4pairIKiiEEEC5Ev,comdat
	.align 2
	.weak	_ZNSt3mapIiiSt4lessIiESaISt4pairIKiiEEEC2Ev
	.type	_ZNSt3mapIiiSt4lessIiESaISt4pairIKiiEEEC2Ev, @function
_ZNSt3mapIiiSt4lessIiESaISt4pairIKiiEEEC2Ev:
.LFB8436:
	.cfi_startproc
	endbr64
	pushq	%rbp
	.cfi_def_cfa_offset 16
	.cfi_offset 6, -16
	movq	%rsp, %rbp
	.cfi_def_cfa_register 6
	subq	$16, %rsp
	movq	%rdi, -8(%rbp)
	movq	-8(%rbp), %rax
	movq	%rax, %rdi
	call	_ZNSt8_Rb_treeIiSt4pairIKiiESt10_Select1stIS2_ESt4lessIiESaIS2_EEC1Ev
	nop
	leave
	.cfi_def_cfa 7, 8
	ret
	.cfi_endproc
.LFE8436:
	.size	_ZNSt3mapIiiSt4lessIiESaISt4pairIKiiEEEC2Ev, .-_ZNSt3mapIiiSt4lessIiESaISt4pairIKiiEEEC2Ev
	.weak	_ZNSt3mapIiiSt4lessIiESaISt4pairIKiiEEEC1Ev
	.set	_ZNSt3mapIiiSt4lessIiESaISt4pairIKiiEEEC1Ev,_ZNSt3mapIiiSt4lessIiESaISt4pairIKiiEEEC2Ev
	.section	.text._ZNSt3mapIiiSt4lessIiESaISt4pairIKiiEEED2Ev,"axG",@progbits,_ZNSt3mapIiiSt4lessIiESaISt4pairIKiiEEED5Ev,comdat
	.align 2
	.weak	_ZNSt3mapIiiSt4lessIiESaISt4pairIKiiEEED2Ev
	.type	_ZNSt3mapIiiSt4lessIiESaISt4pairIKiiEEED2Ev, @function
_ZNSt3mapIiiSt4lessIiESaISt4pairIKiiEEED2Ev:
.LFB8439:
	.cfi_startproc
	endbr64
	pushq	%rbp
	.cfi_def_cfa_offset 16
	.cfi_offset 6, -16
	movq	%rsp, %rbp
	.cfi_def_cfa_register 6
	subq	$16, %rsp
	movq	%rdi, -8(%rbp)
	movq	-8(%rbp), %rax
	movq	%rax, %rdi
	call	_ZNSt8_Rb_treeIiSt4pairIKiiESt10_Select1stIS2_ESt4lessIiESaIS2_EED1Ev
	nop
	leave
	.cfi_def_cfa 7, 8
	ret
	.cfi_endproc
.LFE8439:
	.size	_ZNSt3mapIiiSt4lessIiESaISt4pairIKiiEEED2Ev, .-_ZNSt3mapIiiSt4lessIiESaISt4pairIKiiEEED2Ev
	.weak	_ZNSt3mapIiiSt4lessIiESaISt4pairIKiiEEED1Ev
	.set	_ZNSt3mapIiiSt4lessIiESaISt4pairIKiiEEED1Ev,_ZNSt3mapIiiSt4lessIiESaISt4pairIKiiEEED2Ev
	.section	.text._ZNSt8_Rb_treeINSt7__cxx1112basic_stringIcSt11char_traitsIcESaIcEEESt4pairIKS5_St3mapIiS8_IS5_S8_IS5_dSt4lessIS5_ESaIS6_IS7_dEEESA_SaIS6_IS7_SD_EEES9_IiESaIS6_IKiSG_EEEESt10_Select1stISM_ESA_SaISM_EE13_Rb_tree_implISA_Lb1EED2Ev,"axG",@progbits,_ZNSt8_Rb_treeINSt7__cxx1112basic_stringIcSt11char_traitsIcESaIcEEESt4pairIKS5_St3mapIiS8_IS5_S8_IS5_dSt4lessIS5_ESaIS6_IS7_dEEESA_SaIS6_IS7_SD_EEES9_IiESaIS6_IKiSG_EEEESt10_Select1stISM_ESA_SaISM_EE13_Rb_tree_implISA_Lb1EED5Ev,comdat
	.align 2
	.weak	_ZNSt8_Rb_treeINSt7__cxx1112basic_stringIcSt11char_traitsIcESaIcEEESt4pairIKS5_St3mapIiS8_IS5_S8_IS5_dSt4lessIS5_ESaIS6_IS7_dEEESA_SaIS6_IS7_SD_EEES9_IiESaIS6_IKiSG_EEEESt10_Select1stISM_ESA_SaISM_EE13_Rb_tree_implISA_Lb1EED2Ev
	.type	_ZNSt8_Rb_treeINSt7__cxx1112basic_stringIcSt11char_traitsIcESaIcEEESt4pairIKS5_St3mapIiS8_IS5_S8_IS5_dSt4lessIS5_ESaIS6_IS7_dEEESA_SaIS6_IS7_SD_EEES9_IiESaIS6_IKiSG_EEEESt10_Select1stISM_ESA_SaISM_EE13_Rb_tree_implISA_Lb1EED2Ev, @function
_ZNSt8_Rb_treeINSt7__cxx1112basic_stringIcSt11char_traitsIcESaIcEEESt4pairIKS5_St3mapIiS8_IS5_S8_IS5_dSt4lessIS5_ESaIS6_IS7_dEEESA_SaIS6_IS7_SD_EEES9_IiESaIS6_IKiSG_EEEESt10_Select1stISM_ESA_SaISM_EE13_Rb_tree_implISA_Lb1EED2Ev:
.LFB8444:
	.cfi_startproc
	endbr64
	pushq	%rbp
	.cfi_def_cfa_offset 16
	.cfi_offset 6, -16
	movq	%rsp, %rbp
	.cfi_def_cfa_register 6
	subq	$16, %rsp
	movq	%rdi, -8(%rbp)
	movq	-8(%rbp), %rax
	movq	%rax, %rdi
	call	_ZNSaISt13_Rb_tree_nodeISt4pairIKNSt7__cxx1112basic_stringIcSt11char_traitsIcESaIcEEESt3mapIiS8_IS6_S8_IS6_dSt4lessIS6_ESaIS0_IS7_dEEESA_SaIS0_IS7_SD_EEES9_IiESaIS0_IKiSG_EEEEEED2Ev
	nop
	leave
	.cfi_def_cfa 7, 8
	ret
	.cfi_endproc
.LFE8444:
	.size	_ZNSt8_Rb_treeINSt7__cxx1112basic_stringIcSt11char_traitsIcESaIcEEESt4pairIKS5_St3mapIiS8_IS5_S8_IS5_dSt4lessIS5_ESaIS6_IS7_dEEESA_SaIS6_IS7_SD_EEES9_IiESaIS6_IKiSG_EEEESt10_Select1stISM_ESA_SaISM_EE13_Rb_tree_implISA_Lb1EED2Ev, .-_ZNSt8_Rb_treeINSt7__cxx1112basic_stringIcSt11char_traitsIcESaIcEEESt4pairIKS5_St3mapIiS8_IS5_S8_IS5_dSt4lessIS5_ESaIS6_IS7_dEEESA_SaIS6_IS7_SD_EEES9_IiESaIS6_IKiSG_EEEESt10_Select1stISM_ESA_SaISM_EE13_Rb_tree_implISA_Lb1EED2Ev
	.weak	_ZNSt8_Rb_treeINSt7__cxx1112basic_stringIcSt11char_traitsIcESaIcEEESt4pairIKS5_St3mapIiS8_IS5_S8_IS5_dSt4lessIS5_ESaIS6_IS7_dEEESA_SaIS6_IS7_SD_EEES9_IiESaIS6_IKiSG_EEEESt10_Select1stISM_ESA_SaISM_EE13_Rb_tree_implISA_Lb1EED1Ev
	.set	_ZNSt8_Rb_treeINSt7__cxx1112basic_stringIcSt11char_traitsIcESaIcEEESt4pairIKS5_St3mapIiS8_IS5_S8_IS5_dSt4lessIS5_ESaIS6_IS7_dEEESA_SaIS6_IS7_SD_EEES9_IiESaIS6_IKiSG_EEEESt10_Select1stISM_ESA_SaISM_EE13_Rb_tree_implISA_Lb1EED1Ev,_ZNSt8_Rb_treeINSt7__cxx1112basic_stringIcSt11char_traitsIcESaIcEEESt4pairIKS5_St3mapIiS8_IS5_S8_IS5_dSt4lessIS5_ESaIS6_IS7_dEEESA_SaIS6_IS7_SD_EEES9_IiESaIS6_IKiSG_EEEESt10_Select1stISM_ESA_SaISM_EE13_Rb_tree_implISA_Lb1EED2Ev
	.section	.text._ZNSt8_Rb_treeINSt7__cxx1112basic_stringIcSt11char_traitsIcESaIcEEESt4pairIKS5_St3mapIiS8_IS5_S8_IS5_dSt4lessIS5_ESaIS6_IS7_dEEESA_SaIS6_IS7_SD_EEES9_IiESaIS6_IKiSG_EEEESt10_Select1stISM_ESA_SaISM_EEC2Ev,"axG",@progbits,_ZNSt8_Rb_treeINSt7__cxx1112basic_stringIcSt11char_traitsIcESaIcEEESt4pairIKS5_St3mapIiS8_IS5_S8_IS5_dSt4lessIS5_ESaIS6_IS7_dEEESA_SaIS6_IS7_SD_EEES9_IiESaIS6_IKiSG_EEEESt10_Select1stISM_ESA_SaISM_EEC5Ev,comdat
	.align 2
	.weak	_ZNSt8_Rb_treeINSt7__cxx1112basic_stringIcSt11char_traitsIcESaIcEEESt4pairIKS5_St3mapIiS8_IS5_S8_IS5_dSt4lessIS5_ESaIS6_IS7_dEEESA_SaIS6_IS7_SD_EEES9_IiESaIS6_IKiSG_EEEESt10_Select1stISM_ESA_SaISM_EEC2Ev
	.type	_ZNSt8_Rb_treeINSt7__cxx1112basic_stringIcSt11char_traitsIcESaIcEEESt4pairIKS5_St3mapIiS8_IS5_S8_IS5_dSt4lessIS5_ESaIS6_IS7_dEEESA_SaIS6_IS7_SD_EEES9_IiESaIS6_IKiSG_EEEESt10_Select1stISM_ESA_SaISM_EEC2Ev, @function
_ZNSt8_Rb_treeINSt7__cxx1112basic_stringIcSt11char_traitsIcESaIcEEESt4pairIKS5_St3mapIiS8_IS5_S8_IS5_dSt4lessIS5_ESaIS6_IS7_dEEESA_SaIS6_IS7_SD_EEES9_IiESaIS6_IKiSG_EEEESt10_Select1stISM_ESA_SaISM_EEC2Ev:
.LFB8446:
	.cfi_startproc
	endbr64
	pushq	%rbp
	.cfi_def_cfa_offset 16
	.cfi_offset 6, -16
	movq	%rsp, %rbp
	.cfi_def_cfa_register 6
	subq	$16, %rsp
	movq	%rdi, -8(%rbp)
	movq	-8(%rbp), %rax
	movq	%rax, %rdi
	call	_ZNSt8_Rb_treeINSt7__cxx1112basic_stringIcSt11char_traitsIcESaIcEEESt4pairIKS5_St3mapIiS8_IS5_S8_IS5_dSt4lessIS5_ESaIS6_IS7_dEEESA_SaIS6_IS7_SD_EEES9_IiESaIS6_IKiSG_EEEESt10_Select1stISM_ESA_SaISM_EE13_Rb_tree_implISA_Lb1EEC1Ev
	nop
	leave
	.cfi_def_cfa 7, 8
	ret
	.cfi_endproc
.LFE8446:
	.size	_ZNSt8_Rb_treeINSt7__cxx1112basic_stringIcSt11char_traitsIcESaIcEEESt4pairIKS5_St3mapIiS8_IS5_S8_IS5_dSt4lessIS5_ESaIS6_IS7_dEEESA_SaIS6_IS7_SD_EEES9_IiESaIS6_IKiSG_EEEESt10_Select1stISM_ESA_SaISM_EEC2Ev, .-_ZNSt8_Rb_treeINSt7__cxx1112basic_stringIcSt11char_traitsIcESaIcEEESt4pairIKS5_St3mapIiS8_IS5_S8_IS5_dSt4lessIS5_ESaIS6_IS7_dEEESA_SaIS6_IS7_SD_EEES9_IiESaIS6_IKiSG_EEEESt10_Select1stISM_ESA_SaISM_EEC2Ev
	.weak	_ZNSt8_Rb_treeINSt7__cxx1112basic_stringIcSt11char_traitsIcESaIcEEESt4pairIKS5_St3mapIiS8_IS5_S8_IS5_dSt4lessIS5_ESaIS6_IS7_dEEESA_SaIS6_IS7_SD_EEES9_IiESaIS6_IKiSG_EEEESt10_Select1stISM_ESA_SaISM_EEC1Ev
	.set	_ZNSt8_Rb_treeINSt7__cxx1112basic_stringIcSt11char_traitsIcESaIcEEESt4pairIKS5_St3mapIiS8_IS5_S8_IS5_dSt4lessIS5_ESaIS6_IS7_dEEESA_SaIS6_IS7_SD_EEES9_IiESaIS6_IKiSG_EEEESt10_Select1stISM_ESA_SaISM_EEC1Ev,_ZNSt8_Rb_treeINSt7__cxx1112basic_stringIcSt11char_traitsIcESaIcEEESt4pairIKS5_St3mapIiS8_IS5_S8_IS5_dSt4lessIS5_ESaIS6_IS7_dEEESA_SaIS6_IS7_SD_EEES9_IiESaIS6_IKiSG_EEEESt10_Select1stISM_ESA_SaISM_EEC2Ev
	.section	.text._ZNSt3mapINSt7__cxx1112basic_stringIcSt11char_traitsIcESaIcEEES_IiS_IS5_S_IS5_dSt4lessIS5_ESaISt4pairIKS5_dEEES7_SaIS8_IS9_SC_EEES6_IiESaIS8_IKiSF_EEES7_SaIS8_IS9_SK_EEEC2Ev,"axG",@progbits,_ZNSt3mapINSt7__cxx1112basic_stringIcSt11char_traitsIcESaIcEEES_IiS_IS5_S_IS5_dSt4lessIS5_ESaISt4pairIKS5_dEEES7_SaIS8_IS9_SC_EEES6_IiESaIS8_IKiSF_EEES7_SaIS8_IS9_SK_EEEC5Ev,comdat
	.align 2
	.weak	_ZNSt3mapINSt7__cxx1112basic_stringIcSt11char_traitsIcESaIcEEES_IiS_IS5_S_IS5_dSt4lessIS5_ESaISt4pairIKS5_dEEES7_SaIS8_IS9_SC_EEES6_IiESaIS8_IKiSF_EEES7_SaIS8_IS9_SK_EEEC2Ev
	.type	_ZNSt3mapINSt7__cxx1112basic_stringIcSt11char_traitsIcESaIcEEES_IiS_IS5_S_IS5_dSt4lessIS5_ESaISt4pairIKS5_dEEES7_SaIS8_IS9_SC_EEES6_IiESaIS8_IKiSF_EEES7_SaIS8_IS9_SK_EEEC2Ev, @function
_ZNSt3mapINSt7__cxx1112basic_stringIcSt11char_traitsIcESaIcEEES_IiS_IS5_S_IS5_dSt4lessIS5_ESaISt4pairIKS5_dEEES7_SaIS8_IS9_SC_EEES6_IiESaIS8_IKiSF_EEES7_SaIS8_IS9_SK_EEEC2Ev:
.LFB8448:
	.cfi_startproc
	endbr64
	pushq	%rbp
	.cfi_def_cfa_offset 16
	.cfi_offset 6, -16
	movq	%rsp, %rbp
	.cfi_def_cfa_register 6
	subq	$16, %rsp
	movq	%rdi, -8(%rbp)
	movq	-8(%rbp), %rax
	movq	%rax, %rdi
	call	_ZNSt8_Rb_treeINSt7__cxx1112basic_stringIcSt11char_traitsIcESaIcEEESt4pairIKS5_St3mapIiS8_IS5_S8_IS5_dSt4lessIS5_ESaIS6_IS7_dEEESA_SaIS6_IS7_SD_EEES9_IiESaIS6_IKiSG_EEEESt10_Select1stISM_ESA_SaISM_EEC1Ev
	nop
	leave
	.cfi_def_cfa 7, 8
	ret
	.cfi_endproc
.LFE8448:
	.size	_ZNSt3mapINSt7__cxx1112basic_stringIcSt11char_traitsIcESaIcEEES_IiS_IS5_S_IS5_dSt4lessIS5_ESaISt4pairIKS5_dEEES7_SaIS8_IS9_SC_EEES6_IiESaIS8_IKiSF_EEES7_SaIS8_IS9_SK_EEEC2Ev, .-_ZNSt3mapINSt7__cxx1112basic_stringIcSt11char_traitsIcESaIcEEES_IiS_IS5_S_IS5_dSt4lessIS5_ESaISt4pairIKS5_dEEES7_SaIS8_IS9_SC_EEES6_IiESaIS8_IKiSF_EEES7_SaIS8_IS9_SK_EEEC2Ev
	.weak	_ZNSt3mapINSt7__cxx1112basic_stringIcSt11char_traitsIcESaIcEEES_IiS_IS5_S_IS5_dSt4lessIS5_ESaISt4pairIKS5_dEEES7_SaIS8_IS9_SC_EEES6_IiESaIS8_IKiSF_EEES7_SaIS8_IS9_SK_EEEC1Ev
	.set	_ZNSt3mapINSt7__cxx1112basic_stringIcSt11char_traitsIcESaIcEEES_IiS_IS5_S_IS5_dSt4lessIS5_ESaISt4pairIKS5_dEEES7_SaIS8_IS9_SC_EEES6_IiESaIS8_IKiSF_EEES7_SaIS8_IS9_SK_EEEC1Ev,_ZNSt3mapINSt7__cxx1112basic_stringIcSt11char_traitsIcESaIcEEES_IiS_IS5_S_IS5_dSt4lessIS5_ESaISt4pairIKS5_dEEES7_SaIS8_IS9_SC_EEES6_IiESaIS8_IKiSF_EEES7_SaIS8_IS9_SK_EEEC2Ev
	.section	.text._ZNSt3mapINSt7__cxx1112basic_stringIcSt11char_traitsIcESaIcEEES_IiS_IS5_S_IS5_dSt4lessIS5_ESaISt4pairIKS5_dEEES7_SaIS8_IS9_SC_EEES6_IiESaIS8_IKiSF_EEES7_SaIS8_IS9_SK_EEED2Ev,"axG",@progbits,_ZNSt3mapINSt7__cxx1112basic_stringIcSt11char_traitsIcESaIcEEES_IiS_IS5_S_IS5_dSt4lessIS5_ESaISt4pairIKS5_dEEES7_SaIS8_IS9_SC_EEES6_IiESaIS8_IKiSF_EEES7_SaIS8_IS9_SK_EEED5Ev,comdat
	.align 2
	.weak	_ZNSt3mapINSt7__cxx1112basic_stringIcSt11char_traitsIcESaIcEEES_IiS_IS5_S_IS5_dSt4lessIS5_ESaISt4pairIKS5_dEEES7_SaIS8_IS9_SC_EEES6_IiESaIS8_IKiSF_EEES7_SaIS8_IS9_SK_EEED2Ev
	.type	_ZNSt3mapINSt7__cxx1112basic_stringIcSt11char_traitsIcESaIcEEES_IiS_IS5_S_IS5_dSt4lessIS5_ESaISt4pairIKS5_dEEES7_SaIS8_IS9_SC_EEES6_IiESaIS8_IKiSF_EEES7_SaIS8_IS9_SK_EEED2Ev, @function
_ZNSt3mapINSt7__cxx1112basic_stringIcSt11char_traitsIcESaIcEEES_IiS_IS5_S_IS5_dSt4lessIS5_ESaISt4pairIKS5_dEEES7_SaIS8_IS9_SC_EEES6_IiESaIS8_IKiSF_EEES7_SaIS8_IS9_SK_EEED2Ev:
.LFB8451:
	.cfi_startproc
	endbr64
	pushq	%rbp
	.cfi_def_cfa_offset 16
	.cfi_offset 6, -16
	movq	%rsp, %rbp
	.cfi_def_cfa_register 6
	subq	$16, %rsp
	movq	%rdi, -8(%rbp)
	movq	-8(%rbp), %rax
	movq	%rax, %rdi
	call	_ZNSt8_Rb_treeINSt7__cxx1112basic_stringIcSt11char_traitsIcESaIcEEESt4pairIKS5_St3mapIiS8_IS5_S8_IS5_dSt4lessIS5_ESaIS6_IS7_dEEESA_SaIS6_IS7_SD_EEES9_IiESaIS6_IKiSG_EEEESt10_Select1stISM_ESA_SaISM_EED1Ev
	nop
	leave
	.cfi_def_cfa 7, 8
	ret
	.cfi_endproc
.LFE8451:
	.size	_ZNSt3mapINSt7__cxx1112basic_stringIcSt11char_traitsIcESaIcEEES_IiS_IS5_S_IS5_dSt4lessIS5_ESaISt4pairIKS5_dEEES7_SaIS8_IS9_SC_EEES6_IiESaIS8_IKiSF_EEES7_SaIS8_IS9_SK_EEED2Ev, .-_ZNSt3mapINSt7__cxx1112basic_stringIcSt11char_traitsIcESaIcEEES_IiS_IS5_S_IS5_dSt4lessIS5_ESaISt4pairIKS5_dEEES7_SaIS8_IS9_SC_EEES6_IiESaIS8_IKiSF_EEES7_SaIS8_IS9_SK_EEED2Ev
	.weak	_ZNSt3mapINSt7__cxx1112basic_stringIcSt11char_traitsIcESaIcEEES_IiS_IS5_S_IS5_dSt4lessIS5_ESaISt4pairIKS5_dEEES7_SaIS8_IS9_SC_EEES6_IiESaIS8_IKiSF_EEES7_SaIS8_IS9_SK_EEED1Ev
	.set	_ZNSt3mapINSt7__cxx1112basic_stringIcSt11char_traitsIcESaIcEEES_IiS_IS5_S_IS5_dSt4lessIS5_ESaISt4pairIKS5_dEEES7_SaIS8_IS9_SC_EEES6_IiESaIS8_IKiSF_EEES7_SaIS8_IS9_SK_EEED1Ev,_ZNSt3mapINSt7__cxx1112basic_stringIcSt11char_traitsIcESaIcEEES_IiS_IS5_S_IS5_dSt4lessIS5_ESaISt4pairIKS5_dEEES7_SaIS8_IS9_SC_EEES6_IiESaIS8_IKiSF_EEES7_SaIS8_IS9_SK_EEED2Ev
	.section	.text._ZNSt3setIiSt4lessIiESaIiEED2Ev,"axG",@progbits,_ZNSt3setIiSt4lessIiESaIiEED5Ev,comdat
	.align 2
	.weak	_ZNSt3setIiSt4lessIiESaIiEED2Ev
	.type	_ZNSt3setIiSt4lessIiESaIiEED2Ev, @function
_ZNSt3setIiSt4lessIiESaIiEED2Ev:
.LFB8454:
	.cfi_startproc
	endbr64
	pushq	%rbp
	.cfi_def_cfa_offset 16
	.cfi_offset 6, -16
	movq	%rsp, %rbp
	.cfi_def_cfa_register 6
	subq	$16, %rsp
	movq	%rdi, -8(%rbp)
	movq	-8(%rbp), %rax
	movq	%rax, %rdi
	call	_ZNSt8_Rb_treeIiiSt9_IdentityIiESt4lessIiESaIiEED1Ev
	nop
	leave
	.cfi_def_cfa 7, 8
	ret
	.cfi_endproc
.LFE8454:
	.size	_ZNSt3setIiSt4lessIiESaIiEED2Ev, .-_ZNSt3setIiSt4lessIiESaIiEED2Ev
	.weak	_ZNSt3setIiSt4lessIiESaIiEED1Ev
	.set	_ZNSt3setIiSt4lessIiESaIiEED1Ev,_ZNSt3setIiSt4lessIiESaIiEED2Ev
	.section	.text._ZN11Global_infoC2Ev,"axG",@progbits,_ZN11Global_infoC5Ev,comdat
	.align 2
	.weak	_ZN11Global_infoC2Ev
	.type	_ZN11Global_infoC2Ev, @function
_ZN11Global_infoC2Ev:
.LFB8457:
	.cfi_startproc
	endbr64
	pushq	%rbp
	.cfi_def_cfa_offset 16
	.cfi_offset 6, -16
	movq	%rsp, %rbp
	.cfi_def_cfa_register 6
	subq	$16, %rsp
	movq	%rdi, -8(%rbp)
	movq	-8(%rbp), %rax
	movq	%rax, %rdi
	call	_ZNSt3mapIiSt6vectorIiSaIiEESt4lessIiESaISt4pairIKiS2_EEEC1Ev
	movq	-8(%rbp), %rax
	addq	$48, %rax
	movq	%rax, %rdi
	call	_ZNSt6vectorIdSaIdEEC1Ev
	movq	-8(%rbp), %rax
	addq	$72, %rax
	movq	%rax, %rdi
	call	_ZNSt6vectorIS_IdSaIdEESaIS1_EEC1Ev
	movq	-8(%rbp), %rax
	addq	$120, %rax
	movq	%rax, %rdi
	call	_ZNSt3mapIiiSt4lessIiESaISt4pairIKiiEEEC1Ev
	movq	-8(%rbp), %rax
	addq	$168, %rax
	movq	%rax, %rdi
	call	_ZNSt3mapIiiSt4lessIiESaISt4pairIKiiEEEC1Ev
	movq	-8(%rbp), %rax
	addq	$216, %rax
	movq	%rax, %rdi
	call	_ZNSt3mapIiiSt4lessIiESaISt4pairIKiiEEEC1Ev
	movq	-8(%rbp), %rax
	addq	$264, %rax
	movq	%rax, %rdi
	call	_ZNSt3mapIiiSt4lessIiESaISt4pairIKiiEEEC1Ev
	movq	-8(%rbp), %rax
	addq	$320, %rax
	movq	%rax, %rdi
	call	_ZNSt6vectorIS_IdSaIdEESaIS1_EEC1Ev
	nop
	leave
	.cfi_def_cfa 7, 8
	ret
	.cfi_endproc
.LFE8457:
	.size	_ZN11Global_infoC2Ev, .-_ZN11Global_infoC2Ev
	.weak	_ZN11Global_infoC1Ev
	.set	_ZN11Global_infoC1Ev,_ZN11Global_infoC2Ev
	.section	.text._ZN11Global_infoD2Ev,"axG",@progbits,_ZN11Global_infoD5Ev,comdat
	.align 2
	.weak	_ZN11Global_infoD2Ev
	.type	_ZN11Global_infoD2Ev, @function
_ZN11Global_infoD2Ev:
.LFB8460:
	.cfi_startproc
	endbr64
	pushq	%rbp
	.cfi_def_cfa_offset 16
	.cfi_offset 6, -16
	movq	%rsp, %rbp
	.cfi_def_cfa_register 6
	subq	$16, %rsp
	movq	%rdi, -8(%rbp)
	movq	-8(%rbp), %rax
	addq	$320, %rax
	movq	%rax, %rdi
	call	_ZNSt6vectorIS_IdSaIdEESaIS1_EED1Ev
	movq	-8(%rbp), %rax
	addq	$264, %rax
	movq	%rax, %rdi
	call	_ZNSt3mapIiiSt4lessIiESaISt4pairIKiiEEED1Ev
	movq	-8(%rbp), %rax
	addq	$216, %rax
	movq	%rax, %rdi
	call	_ZNSt3mapIiiSt4lessIiESaISt4pairIKiiEEED1Ev
	movq	-8(%rbp), %rax
	addq	$168, %rax
	movq	%rax, %rdi
	call	_ZNSt3mapIiiSt4lessIiESaISt4pairIKiiEEED1Ev
	movq	-8(%rbp), %rax
	addq	$120, %rax
	movq	%rax, %rdi
	call	_ZNSt3mapIiiSt4lessIiESaISt4pairIKiiEEED1Ev
	movq	-8(%rbp), %rax
	addq	$72, %rax
	movq	%rax, %rdi
	call	_ZNSt6vectorIS_IdSaIdEESaIS1_EED1Ev
	movq	-8(%rbp), %rax
	addq	$48, %rax
	movq	%rax, %rdi
	call	_ZNSt6vectorIdSaIdEED1Ev
	movq	-8(%rbp), %rax
	movq	%rax, %rdi
	call	_ZNSt3mapIiSt6vectorIiSaIiEESt4lessIiESaISt4pairIKiS2_EEED1Ev
	nop
	leave
	.cfi_def_cfa 7, 8
	ret
	.cfi_endproc
.LFE8460:
	.size	_ZN11Global_infoD2Ev, .-_ZN11Global_infoD2Ev
	.weak	_ZN11Global_infoD1Ev
	.set	_ZN11Global_infoD1Ev,_ZN11Global_infoD2Ev
	.section	.text._ZNSt3mapIiSt6vectorIiSaIiEESt4lessIiESaISt4pairIKiS2_EEEaSERKS9_,"axG",@progbits,_ZNSt3mapIiSt6vectorIiSaIiEESt4lessIiESaISt4pairIKiS2_EEEaSERKS9_,comdat
	.align 2
	.weak	_ZNSt3mapIiSt6vectorIiSaIiEESt4lessIiESaISt4pairIKiS2_EEEaSERKS9_
	.type	_ZNSt3mapIiSt6vectorIiSaIiEESt4lessIiESaISt4pairIKiS2_EEEaSERKS9_, @function
_ZNSt3mapIiSt6vectorIiSaIiEESt4lessIiESaISt4pairIKiS2_EEEaSERKS9_:
.LFB8462:
	.cfi_startproc
	endbr64
	pushq	%rbp
	.cfi_def_cfa_offset 16
	.cfi_offset 6, -16
	movq	%rsp, %rbp
	.cfi_def_cfa_register 6
	subq	$16, %rsp
	movq	%rdi, -8(%rbp)
	movq	%rsi, -16(%rbp)
	movq	-16(%rbp), %rdx
	movq	-8(%rbp), %rax
	movq	%rdx, %rsi
	movq	%rax, %rdi
	call	_ZNSt8_Rb_treeIiSt4pairIKiSt6vectorIiSaIiEEESt10_Select1stIS5_ESt4lessIiESaIS5_EEaSERKSB_
	movq	-8(%rbp), %rax
	leave
	.cfi_def_cfa 7, 8
	ret
	.cfi_endproc
.LFE8462:
	.size	_ZNSt3mapIiSt6vectorIiSaIiEESt4lessIiESaISt4pairIKiS2_EEEaSERKS9_, .-_ZNSt3mapIiSt6vectorIiSaIiEESt4lessIiESaISt4pairIKiS2_EEEaSERKS9_
	.section	.text._ZNSt3mapIiiSt4lessIiESaISt4pairIKiiEEEaSERKS6_,"axG",@progbits,_ZNSt3mapIiiSt4lessIiESaISt4pairIKiiEEEaSERKS6_,comdat
	.align 2
	.weak	_ZNSt3mapIiiSt4lessIiESaISt4pairIKiiEEEaSERKS6_
	.type	_ZNSt3mapIiiSt4lessIiESaISt4pairIKiiEEEaSERKS6_, @function
_ZNSt3mapIiiSt4lessIiESaISt4pairIKiiEEEaSERKS6_:
.LFB8463:
	.cfi_startproc
	endbr64
	pushq	%rbp
	.cfi_def_cfa_offset 16
	.cfi_offset 6, -16
	movq	%rsp, %rbp
	.cfi_def_cfa_register 6
	subq	$16, %rsp
	movq	%rdi, -8(%rbp)
	movq	%rsi, -16(%rbp)
	movq	-16(%rbp), %rdx
	movq	-8(%rbp), %rax
	movq	%rdx, %rsi
	movq	%rax, %rdi
	call	_ZNSt8_Rb_treeIiSt4pairIKiiESt10_Select1stIS2_ESt4lessIiESaIS2_EEaSERKS8_
	movq	-8(%rbp), %rax
	leave
	.cfi_def_cfa 7, 8
	ret
	.cfi_endproc
.LFE8463:
	.size	_ZNSt3mapIiiSt4lessIiESaISt4pairIKiiEEEaSERKS6_, .-_ZNSt3mapIiiSt4lessIiESaISt4pairIKiiEEEaSERKS6_
	.section	.text._ZNSt3mapIiSt6vectorIiSaIiEESt4lessIiESaISt4pairIKiS2_EEEC2ERKS9_,"axG",@progbits,_ZNSt3mapIiSt6vectorIiSaIiEESt4lessIiESaISt4pairIKiS2_EEEC5ERKS9_,comdat
	.align 2
	.weak	_ZNSt3mapIiSt6vectorIiSaIiEESt4lessIiESaISt4pairIKiS2_EEEC2ERKS9_
	.type	_ZNSt3mapIiSt6vectorIiSaIiEESt4lessIiESaISt4pairIKiS2_EEEC2ERKS9_, @function
_ZNSt3mapIiSt6vectorIiSaIiEESt4lessIiESaISt4pairIKiS2_EEEC2ERKS9_:
.LFB8465:
	.cfi_startproc
	endbr64
	pushq	%rbp
	.cfi_def_cfa_offset 16
	.cfi_offset 6, -16
	movq	%rsp, %rbp
	.cfi_def_cfa_register 6
	subq	$16, %rsp
	movq	%rdi, -8(%rbp)
	movq	%rsi, -16(%rbp)
	movq	-8(%rbp), %rax
	movq	-16(%rbp), %rdx
	movq	%rdx, %rsi
	movq	%rax, %rdi
	call	_ZNSt8_Rb_treeIiSt4pairIKiSt6vectorIiSaIiEEESt10_Select1stIS5_ESt4lessIiESaIS5_EEC1ERKSB_
	nop
	leave
	.cfi_def_cfa 7, 8
	ret
	.cfi_endproc
.LFE8465:
	.size	_ZNSt3mapIiSt6vectorIiSaIiEESt4lessIiESaISt4pairIKiS2_EEEC2ERKS9_, .-_ZNSt3mapIiSt6vectorIiSaIiEESt4lessIiESaISt4pairIKiS2_EEEC2ERKS9_
	.weak	_ZNSt3mapIiSt6vectorIiSaIiEESt4lessIiESaISt4pairIKiS2_EEEC1ERKS9_
	.set	_ZNSt3mapIiSt6vectorIiSaIiEESt4lessIiESaISt4pairIKiS2_EEEC1ERKS9_,_ZNSt3mapIiSt6vectorIiSaIiEESt4lessIiESaISt4pairIKiS2_EEEC2ERKS9_
	.section	.text._ZNSt3mapINSt7__cxx1112basic_stringIcSt11char_traitsIcESaIcEEEdSt4lessIS5_ESaISt4pairIKS5_dEEED2Ev,"axG",@progbits,_ZNSt3mapINSt7__cxx1112basic_stringIcSt11char_traitsIcESaIcEEEdSt4lessIS5_ESaISt4pairIKS5_dEEED5Ev,comdat
	.align 2
	.weak	_ZNSt3mapINSt7__cxx1112basic_stringIcSt11char_traitsIcESaIcEEEdSt4lessIS5_ESaISt4pairIKS5_dEEED2Ev
	.type	_ZNSt3mapINSt7__cxx1112basic_stringIcSt11char_traitsIcESaIcEEEdSt4lessIS5_ESaISt4pairIKS5_dEEED2Ev, @function
_ZNSt3mapINSt7__cxx1112basic_stringIcSt11char_traitsIcESaIcEEEdSt4lessIS5_ESaISt4pairIKS5_dEEED2Ev:
.LFB8474:
	.cfi_startproc
	endbr64
	pushq	%rbp
	.cfi_def_cfa_offset 16
	.cfi_offset 6, -16
	movq	%rsp, %rbp
	.cfi_def_cfa_register 6
	subq	$16, %rsp
	movq	%rdi, -8(%rbp)
	movq	-8(%rbp), %rax
	movq	%rax, %rdi
	call	_ZNSt8_Rb_treeINSt7__cxx1112basic_stringIcSt11char_traitsIcESaIcEEESt4pairIKS5_dESt10_Select1stIS8_ESt4lessIS5_ESaIS8_EED1Ev
	nop
	leave
	.cfi_def_cfa 7, 8
	ret
	.cfi_endproc
.LFE8474:
	.size	_ZNSt3mapINSt7__cxx1112basic_stringIcSt11char_traitsIcESaIcEEEdSt4lessIS5_ESaISt4pairIKS5_dEEED2Ev, .-_ZNSt3mapINSt7__cxx1112basic_stringIcSt11char_traitsIcESaIcEEEdSt4lessIS5_ESaISt4pairIKS5_dEEED2Ev
	.weak	_ZNSt3mapINSt7__cxx1112basic_stringIcSt11char_traitsIcESaIcEEEdSt4lessIS5_ESaISt4pairIKS5_dEEED1Ev
	.set	_ZNSt3mapINSt7__cxx1112basic_stringIcSt11char_traitsIcESaIcEEEdSt4lessIS5_ESaISt4pairIKS5_dEEED1Ev,_ZNSt3mapINSt7__cxx1112basic_stringIcSt11char_traitsIcESaIcEEEdSt4lessIS5_ESaISt4pairIKS5_dEEED2Ev
	.section	.text._ZNSt3mapINSt7__cxx1112basic_stringIcSt11char_traitsIcESaIcEEEdSt4lessIS5_ESaISt4pairIKS5_dEEEaSEOSC_,"axG",@progbits,_ZNSt3mapINSt7__cxx1112basic_stringIcSt11char_traitsIcESaIcEEEdSt4lessIS5_ESaISt4pairIKS5_dEEEaSEOSC_,comdat
	.align 2
	.weak	_ZNSt3mapINSt7__cxx1112basic_stringIcSt11char_traitsIcESaIcEEEdSt4lessIS5_ESaISt4pairIKS5_dEEEaSEOSC_
	.type	_ZNSt3mapINSt7__cxx1112basic_stringIcSt11char_traitsIcESaIcEEEdSt4lessIS5_ESaISt4pairIKS5_dEEEaSEOSC_, @function
_ZNSt3mapINSt7__cxx1112basic_stringIcSt11char_traitsIcESaIcEEEdSt4lessIS5_ESaISt4pairIKS5_dEEEaSEOSC_:
.LFB8479:
	.cfi_startproc
	endbr64
	pushq	%rbp
	.cfi_def_cfa_offset 16
	.cfi_offset 6, -16
	movq	%rsp, %rbp
	.cfi_def_cfa_register 6
	subq	$16, %rsp
	movq	%rdi, -8(%rbp)
	movq	%rsi, -16(%rbp)
	movq	-16(%rbp), %rdx
	movq	-8(%rbp), %rax
	movq	%rdx, %rsi
	movq	%rax, %rdi
	call	_ZNSt8_Rb_treeINSt7__cxx1112basic_stringIcSt11char_traitsIcESaIcEEESt4pairIKS5_dESt10_Select1stIS8_ESt4lessIS5_ESaIS8_EEaSEOSE_
	movq	-8(%rbp), %rax
	leave
	.cfi_def_cfa 7, 8
	ret
	.cfi_endproc
.LFE8479:
	.size	_ZNSt3mapINSt7__cxx1112basic_stringIcSt11char_traitsIcESaIcEEEdSt4lessIS5_ESaISt4pairIKS5_dEEEaSEOSC_, .-_ZNSt3mapINSt7__cxx1112basic_stringIcSt11char_traitsIcESaIcEEEdSt4lessIS5_ESaISt4pairIKS5_dEEEaSEOSC_
	.section	.text._ZNSt3mapIiiSt4lessIiESaISt4pairIKiiEEEC2ERKS6_,"axG",@progbits,_ZNSt3mapIiiSt4lessIiESaISt4pairIKiiEEEC5ERKS6_,comdat
	.align 2
	.weak	_ZNSt3mapIiiSt4lessIiESaISt4pairIKiiEEEC2ERKS6_
	.type	_ZNSt3mapIiiSt4lessIiESaISt4pairIKiiEEEC2ERKS6_, @function
_ZNSt3mapIiiSt4lessIiESaISt4pairIKiiEEEC2ERKS6_:
.LFB8482:
	.cfi_startproc
	endbr64
	pushq	%rbp
	.cfi_def_cfa_offset 16
	.cfi_offset 6, -16
	movq	%rsp, %rbp
	.cfi_def_cfa_register 6
	subq	$16, %rsp
	movq	%rdi, -8(%rbp)
	movq	%rsi, -16(%rbp)
	movq	-8(%rbp), %rax
	movq	-16(%rbp), %rdx
	movq	%rdx, %rsi
	movq	%rax, %rdi
	call	_ZNSt8_Rb_treeIiSt4pairIKiiESt10_Select1stIS2_ESt4lessIiESaIS2_EEC1ERKS8_
	nop
	leave
	.cfi_def_cfa 7, 8
	ret
	.cfi_endproc
.LFE8482:
	.size	_ZNSt3mapIiiSt4lessIiESaISt4pairIKiiEEEC2ERKS6_, .-_ZNSt3mapIiiSt4lessIiESaISt4pairIKiiEEEC2ERKS6_
	.weak	_ZNSt3mapIiiSt4lessIiESaISt4pairIKiiEEEC1ERKS6_
	.set	_ZNSt3mapIiiSt4lessIiESaISt4pairIKiiEEEC1ERKS6_,_ZNSt3mapIiiSt4lessIiESaISt4pairIKiiEEEC2ERKS6_
	.section	.text._ZN11Global_infoC2ERKS_,"axG",@progbits,_ZN11Global_infoC5ERKS_,comdat
	.align 2
	.weak	_ZN11Global_infoC2ERKS_
	.type	_ZN11Global_infoC2ERKS_, @function
_ZN11Global_infoC2ERKS_:
.LFB8484:
	.cfi_startproc
	.cfi_personality 0x9b,DW.ref.__gxx_personality_v0
	.cfi_lsda 0x1b,.LLSDA8484
	endbr64
	pushq	%rbp
	.cfi_def_cfa_offset 16
	.cfi_offset 6, -16
	movq	%rsp, %rbp
	.cfi_def_cfa_register 6
	pushq	%rbx
	subq	$24, %rsp
	.cfi_offset 3, -24
	movq	%rdi, -24(%rbp)
	movq	%rsi, -32(%rbp)
	movq	-24(%rbp), %rax
	movq	-32(%rbp), %rdx
	movq	%rdx, %rsi
	movq	%rax, %rdi
.LEHB15:
	call	_ZNSt3mapIiSt6vectorIiSaIiEESt4lessIiESaISt4pairIKiS2_EEEC1ERKS9_
.LEHE15:
	movq	-24(%rbp), %rax
	addq	$48, %rax
	movq	-32(%rbp), %rdx
	addq	$48, %rdx
	movq	%rdx, %rsi
	movq	%rax, %rdi
.LEHB16:
	call	_ZNSt6vectorIdSaIdEEC1ERKS1_
.LEHE16:
	movq	-24(%rbp), %rax
	addq	$72, %rax
	movq	-32(%rbp), %rdx
	addq	$72, %rdx
	movq	%rdx, %rsi
	movq	%rax, %rdi
.LEHB17:
	call	_ZNSt6vectorIS_IdSaIdEESaIS1_EEC1ERKS3_
.LEHE17:
	movq	-24(%rbp), %rcx
	movq	-32(%rbp), %rsi
	movq	96(%rsi), %rax
	movq	104(%rsi), %rdx
	movq	%rax, 96(%rcx)
	movq	%rdx, 104(%rcx)
	movq	112(%rsi), %rax
	movq	%rax, 112(%rcx)
	movq	-24(%rbp), %rax
	addq	$120, %rax
	movq	-32(%rbp), %rdx
	addq	$120, %rdx
	movq	%rdx, %rsi
	movq	%rax, %rdi
.LEHB18:
	call	_ZNSt3mapIiiSt4lessIiESaISt4pairIKiiEEEC1ERKS6_
.LEHE18:
	movq	-24(%rbp), %rax
	addq	$168, %rax
	movq	-32(%rbp), %rdx
	addq	$168, %rdx
	movq	%rdx, %rsi
	movq	%rax, %rdi
.LEHB19:
	call	_ZNSt3mapIiiSt4lessIiESaISt4pairIKiiEEEC1ERKS6_
.LEHE19:
	movq	-24(%rbp), %rax
	addq	$216, %rax
	movq	-32(%rbp), %rdx
	addq	$216, %rdx
	movq	%rdx, %rsi
	movq	%rax, %rdi
.LEHB20:
	call	_ZNSt3mapIiiSt4lessIiESaISt4pairIKiiEEEC1ERKS6_
.LEHE20:
	movq	-24(%rbp), %rax
	addq	$264, %rax
	movq	-32(%rbp), %rdx
	addq	$264, %rdx
	movq	%rdx, %rsi
	movq	%rax, %rdi
.LEHB21:
	call	_ZNSt3mapIiiSt4lessIiESaISt4pairIKiiEEEC1ERKS6_
.LEHE21:
	movq	-32(%rbp), %rax
	movl	312(%rax), %edx
	movq	-24(%rbp), %rax
	movl	%edx, 312(%rax)
	movq	-24(%rbp), %rax
	addq	$320, %rax
	movq	-32(%rbp), %rdx
	addq	$320, %rdx
	movq	%rdx, %rsi
	movq	%rax, %rdi
.LEHB22:
	call	_ZNSt6vectorIS_IdSaIdEESaIS1_EEC1ERKS3_
.LEHE22:
	jmp	.L114
.L113:
	endbr64
	movq	%rax, %rbx
	movq	-24(%rbp), %rax
	addq	$264, %rax
	movq	%rax, %rdi
	call	_ZNSt3mapIiiSt4lessIiESaISt4pairIKiiEEED1Ev
	jmp	.L101
.L112:
	endbr64
	movq	%rax, %rbx
.L101:
	movq	-24(%rbp), %rax
	addq	$216, %rax
	movq	%rax, %rdi
	call	_ZNSt3mapIiiSt4lessIiESaISt4pairIKiiEEED1Ev
	jmp	.L102
.L111:
	endbr64
	movq	%rax, %rbx
.L102:
	movq	-24(%rbp), %rax
	addq	$168, %rax
	movq	%rax, %rdi
	call	_ZNSt3mapIiiSt4lessIiESaISt4pairIKiiEEED1Ev
	jmp	.L103
.L110:
	endbr64
	movq	%rax, %rbx
.L103:
	movq	-24(%rbp), %rax
	addq	$120, %rax
	movq	%rax, %rdi
	call	_ZNSt3mapIiiSt4lessIiESaISt4pairIKiiEEED1Ev
	jmp	.L104
.L109:
	endbr64
	movq	%rax, %rbx
.L104:
	movq	-24(%rbp), %rax
	addq	$72, %rax
	movq	%rax, %rdi
	call	_ZNSt6vectorIS_IdSaIdEESaIS1_EED1Ev
	jmp	.L105
.L108:
	endbr64
	movq	%rax, %rbx
.L105:
	movq	-24(%rbp), %rax
	addq	$48, %rax
	movq	%rax, %rdi
	call	_ZNSt6vectorIdSaIdEED1Ev
	jmp	.L106
.L107:
	endbr64
	movq	%rax, %rbx
.L106:
	movq	-24(%rbp), %rax
	movq	%rax, %rdi
	call	_ZNSt3mapIiSt6vectorIiSaIiEESt4lessIiESaISt4pairIKiS2_EEED1Ev
	movq	%rbx, %rax
	movq	%rax, %rdi
.LEHB23:
	call	_Unwind_Resume@PLT
.LEHE23:
.L114:
	addq	$24, %rsp
	popq	%rbx
	popq	%rbp
	.cfi_def_cfa 7, 8
	ret
	.cfi_endproc
.LFE8484:
	.section	.gcc_except_table
.LLSDA8484:
	.byte	0xff
	.byte	0xff
	.byte	0x1
	.uleb128 .LLSDACSE8484-.LLSDACSB8484
.LLSDACSB8484:
	.uleb128 .LEHB15-.LFB8484
	.uleb128 .LEHE15-.LEHB15
	.uleb128 0
	.uleb128 0
	.uleb128 .LEHB16-.LFB8484
	.uleb128 .LEHE16-.LEHB16
	.uleb128 .L107-.LFB8484
	.uleb128 0
	.uleb128 .LEHB17-.LFB8484
	.uleb128 .LEHE17-.LEHB17
	.uleb128 .L108-.LFB8484
	.uleb128 0
	.uleb128 .LEHB18-.LFB8484
	.uleb128 .LEHE18-.LEHB18
	.uleb128 .L109-.LFB8484
	.uleb128 0
	.uleb128 .LEHB19-.LFB8484
	.uleb128 .LEHE19-.LEHB19
	.uleb128 .L110-.LFB8484
	.uleb128 0
	.uleb128 .LEHB20-.LFB8484
	.uleb128 .LEHE20-.LEHB20
	.uleb128 .L111-.LFB8484
	.uleb128 0
	.uleb128 .LEHB21-.LFB8484
	.uleb128 .LEHE21-.LEHB21
	.uleb128 .L112-.LFB8484
	.uleb128 0
	.uleb128 .LEHB22-.LFB8484
	.uleb128 .LEHE22-.LEHB22
	.uleb128 .L113-.LFB8484
	.uleb128 0
	.uleb128 .LEHB23-.LFB8484
	.uleb128 .LEHE23-.LEHB23
	.uleb128 0
	.uleb128 0
.LLSDACSE8484:
	.section	.text._ZN11Global_infoC2ERKS_,"axG",@progbits,_ZN11Global_infoC5ERKS_,comdat
	.size	_ZN11Global_infoC2ERKS_, .-_ZN11Global_infoC2ERKS_
	.weak	_ZN11Global_infoC1ERKS_
	.set	_ZN11Global_infoC1ERKS_,_ZN11Global_infoC2ERKS_
	.section	.rodata
.LC7:
	.string	"value"
.LC8:
	.string	"weight"
	.text
	.align 2
	.globl	_ZN6Expgen3runEv
	.type	_ZN6Expgen3runEv, @function
_ZN6Expgen3runEv:
.LFB8398:
	.cfi_startproc
	.cfi_personality 0x9b,DW.ref.__gxx_personality_v0
	.cfi_lsda 0x1b,.LLSDA8398
	endbr64
	pushq	%rbp
	.cfi_def_cfa_offset 16
	.cfi_offset 6, -16
	movq	%rsp, %rbp
	.cfi_def_cfa_register 6
	pushq	%r14
	pushq	%r13
	pushq	%r12
	pushq	%rbx
	subq	$2768, %rsp
	.cfi_offset 14, -24
	.cfi_offset 13, -32
	.cfi_offset 12, -40
	.cfi_offset 3, -48
	movq	%rdi, -2792(%rbp)
	movq	%fs:40, %rax
	movq	%rax, -40(%rbp)
	xorl	%eax, %eax
	movq	-2792(%rbp), %rax
	movl	56(%rax), %eax
	movl	%eax, -2648(%rbp)
	movl	$1, -2772(%rbp)
	movl	$0, -2732(%rbp)
	movq	-2792(%rbp), %rax
	movq	%rax, %rdi
	call	_ZNKSt6vectorIS_IdSaIdEESaIS1_EE4sizeEv
	movl	%eax, -2644(%rbp)
	leaq	-2544(%rbp), %rax
	movq	%rax, %rdi
	call	_ZNSt6vectorIiSaIiEEC1Ev
	leaq	-2512(%rbp), %rax
	movq	%rax, %rdi
	call	_ZNSt6vectorIiSaIiEEC1Ev
	leaq	-2480(%rbp), %rax
	movq	%rax, %rdi
	call	_ZNSt6vectorIiSaIiEEC1Ev
	leaq	-2448(%rbp), %rax
	movq	%rax, %rdi
	call	_ZNSt6vectorIdSaIdEEC1Ev
	leaq	-2032(%rbp), %rax
	movq	%rax, %rdi
	call	_ZNSt3mapIiSt6vectorIiSaIiEESt4lessIiESaISt4pairIKiS2_EEEC1Ev
	leaq	-2416(%rbp), %rax
	movq	%rax, %rdi
	call	_ZNSt6vectorIiSaIiEEC1Ev
	leaq	-1984(%rbp), %rax
	movq	%rax, %rdi
	call	_ZNSt3mapIiiSt4lessIiESaISt4pairIKiiEEEC1Ev
	leaq	-1936(%rbp), %rax
	movq	%rax, %rdi
	call	_ZNSt3mapINSt7__cxx1112basic_stringIcSt11char_traitsIcESaIcEEES_IiS_IS5_S_IS5_dSt4lessIS5_ESaISt4pairIKS5_dEEES7_SaIS8_IS9_SC_EEES6_IiESaIS8_IKiSF_EEES7_SaIS8_IS9_SK_EEEC1Ev
	leaq	-1888(%rbp), %rax
	movq	%rax, %rdi
	call	_ZNSt3mapIiSt6vectorIiSaIiEESt4lessIiESaISt4pairIKiS2_EEEC1Ev
	leaq	-2624(%rbp), %rax
	movq	%rax, %rdi
	call	_ZNSt17_Rb_tree_iteratorISt4pairIKiSt6vectorIiSaIiEEEEC1Ev
	leaq	-2616(%rbp), %rax
	movq	%rax, %rdi
	call	_ZNSt17_Rb_tree_iteratorISt4pairIKiSt6vectorIiSaIiEEEEC1Ev
	leaq	-2384(%rbp), %rax
	movq	%rax, %rdi
	call	_ZNSt6vectorIS_IdSaIdEESaIS1_EEC1Ev
	movl	$0, -2728(%rbp)
.L117:
	movl	-2728(%rbp), %eax
	movslq	%eax, %rbx
	movq	-2792(%rbp), %rax
	addq	$32, %rax
	movq	%rax, %rdi
	call	_ZNKSt6vectorIP11GraphRecsysSaIS1_EE4sizeEv
	cmpq	%rax, %rbx
	setb	%al
	testb	%al, %al
	je	.L116
	movl	-2728(%rbp), %eax
	cltq
	movq	-2792(%rbp), %rdx
	addq	$32, %rdx
	movq	%rax, %rsi
	movq	%rdx, %rdi
	call	_ZNSt6vectorIP11GraphRecsysSaIS1_EEixEm
	movq	(%rax), %rax
	movl	-2648(%rbp), %edx
	movl	%edx, (%rax)
	addl	$1, -2728(%rbp)
	jmp	.L117
.L116:
	movl	$0, -2724(%rbp)
.L119:
	movl	-2724(%rbp), %eax
	movslq	%eax, %rbx
	movq	-2792(%rbp), %rax
	addq	$64, %rax
	movq	%rax, %rdi
	call	_ZNKSt6vectorIS_IdSaIdEESaIS1_EE4sizeEv
	cmpq	%rax, %rbx
	setb	%al
	testb	%al, %al
	je	.L118
	movl	-2724(%rbp), %eax
	cltq
	movq	-2792(%rbp), %rdx
	addq	$64, %rdx
	movq	%rax, %rsi
	movq	%rdx, %rdi
	call	_ZNSt6vectorIS_IdSaIdEESaIS1_EEixEm
	movl	$0, %esi
	movq	%rax, %rdi
	call	_ZNSt6vectorIdSaIdEEixEm
	movsd	(%rax), %xmm0
	cvttsd2sil	%xmm0, %eax
	movl	%eax, -1120(%rbp)
	leaq	-1120(%rbp), %rdx
	leaq	-1888(%rbp), %rax
	movq	%rdx, %rsi
	movq	%rax, %rdi
.LEHB24:
	call	_ZNSt3mapIiSt6vectorIiSaIiEESt4lessIiESaISt4pairIKiS2_EEEixEOi
	movq	%rax, %rbx
	movl	-2724(%rbp), %eax
	cltq
	movq	-2792(%rbp), %rdx
	addq	$64, %rdx
	movq	%rax, %rsi
	movq	%rdx, %rdi
	call	_ZNSt6vectorIS_IdSaIdEESaIS1_EEixEm
	movl	$1, %esi
	movq	%rax, %rdi
	call	_ZNSt6vectorIdSaIdEEixEm
	movsd	(%rax), %xmm0
	cvttsd2sil	%xmm0, %eax
	movl	%eax, -1072(%rbp)
	leaq	-1072(%rbp), %rax
	movq	%rax, %rsi
	movq	%rbx, %rdi
	call	_ZNSt6vectorIiSaIiEE9push_backEOi
.LEHE24:
	addl	$1, -2724(%rbp)
	jmp	.L119
.L118:
	movl	-2732(%rbp), %eax
	cmpl	-2644(%rbp), %eax
	jge	.L120
	leaq	-2352(%rbp), %rax
	movq	%rax, %rdi
	call	_ZNSt6vectorIS_IdSaIdEESaIS1_EEC1Ev
	movq	-2792(%rbp), %rax
	movl	24(%rax), %edx
	movl	-2772(%rbp), %eax
	imull	%eax, %edx
	movl	-2648(%rbp), %eax
	addl	%edx, %eax
	movl	%eax, -2640(%rbp)
	movl	$0, -2720(%rbp)
	leaq	-2320(%rbp), %rax
	movq	%rax, %rdi
	call	_ZNSt6vectorIiSaIiEEC1Ev
	leaq	-2288(%rbp), %rax
	movq	%rax, %rdi
	call	_ZNSt6vectorIiSaIiEEC1Ev
	leaq	-2256(%rbp), %rax
	movq	%rax, %rdi
	call	_ZNSt6vectorIiSaIiEEC1Ev
	leaq	-1840(%rbp), %rax
	movq	%rax, %rdi
	call	_ZNSt3mapIiSt6vectorIiSaIiEESt4lessIiESaISt4pairIKiS2_EEEC1Ev
	leaq	-1792(%rbp), %rax
	movq	%rax, %rdi
	call	_ZNSt3mapIiSt6vectorIiSaIiEESt4lessIiESaISt4pairIKiS2_EEEC1Ev
.L135:
	movl	-2732(%rbp), %eax
	cmpl	-2644(%rbp), %eax
	jge	.L121
	movl	-2732(%rbp), %eax
	movslq	%eax, %rdx
	movq	-2792(%rbp), %rax
	movq	%rdx, %rsi
	movq	%rax, %rdi
	call	_ZNSt6vectorIS_IdSaIdEESaIS1_EEixEm
	movq	%rax, %rdx
	leaq	-1072(%rbp), %rax
	movq	%rdx, %rsi
	movq	%rax, %rdi
.LEHB25:
	call	_ZNSt6vectorIdSaIdEEC1ERKS1_
.LEHE25:
	movb	$0, -2774(%rbp)
	movb	$0, -2773(%rbp)
	leaq	-1072(%rbp), %rax
	movl	$0, %esi
	movq	%rax, %rdi
	call	_ZNSt6vectorIdSaIdEEixEm
	movsd	(%rax), %xmm0
	cvttsd2sil	%xmm0, %eax
	movl	%eax, -2636(%rbp)
	leaq	-1072(%rbp), %rax
	movl	$1, %esi
	movq	%rax, %rdi
	call	_ZNSt6vectorIdSaIdEEixEm
	movsd	(%rax), %xmm0
	cvttsd2sil	%xmm0, %eax
	movl	%eax, -2768(%rbp)
	leaq	-1072(%rbp), %rax
	movl	$2, %esi
	movq	%rax, %rdi
	call	_ZNSt6vectorIdSaIdEEixEm
	movsd	(%rax), %xmm0
	cvttsd2sil	%xmm0, %eax
	movl	%eax, -2764(%rbp)
	leaq	-1072(%rbp), %rax
	movl	$3, %esi
	movq	%rax, %rdi
	call	_ZNSt6vectorIdSaIdEEixEm
	movsd	(%rax), %xmm0
	cvttsd2sil	%xmm0, %eax
	movl	%eax, -2760(%rbp)
	leaq	-1072(%rbp), %rax
	movl	$4, %esi
	movq	%rax, %rdi
	call	_ZNSt6vectorIdSaIdEEixEm
	movsd	(%rax), %xmm0
	movsd	%xmm0, -2568(%rbp)
	movl	-2636(%rbp), %eax
	cmpl	-2640(%rbp), %eax
	jle	.L122
	movl	$0, %ebx
	jmp	.L123
.L122:
	leaq	-1072(%rbp), %rdx
	leaq	-2352(%rbp), %rax
	movq	%rdx, %rsi
	movq	%rax, %rdi
.LEHB26:
	call	_ZNSt6vectorIS_IdSaIdEESaIS1_EE9push_backERKS1_
	leaq	-1072(%rbp), %rdx
	leaq	-2384(%rbp), %rax
	movq	%rdx, %rsi
	movq	%rax, %rdi
	call	_ZNSt6vectorIS_IdSaIdEESaIS1_EE9push_backERKS1_
	leaq	-2544(%rbp), %rax
	movq	%rax, %rdi
	call	_ZNSt6vectorIiSaIiEE3endEv
	movq	%rax, -1120(%rbp)
	leaq	-2544(%rbp), %rax
	movq	%rax, %rdi
	call	_ZNSt6vectorIiSaIiEE3endEv
	movq	%rax, %rbx
	leaq	-2544(%rbp), %rax
	movq	%rax, %rdi
	call	_ZNSt6vectorIiSaIiEE5beginEv
	movq	%rax, %rcx
	leaq	-2768(%rbp), %rax
	movq	%rax, %rdx
	movq	%rbx, %rsi
	movq	%rcx, %rdi
	call	_ZSt4findIN9__gnu_cxx17__normal_iteratorIPiSt6vectorIiSaIiEEEEiET_S7_S7_RKT0_
	movq	%rax, -2608(%rbp)
	leaq	-1120(%rbp), %rdx
	leaq	-2608(%rbp), %rax
	movq	%rdx, %rsi
	movq	%rax, %rdi
	call	_ZN9__gnu_cxxneIPiSt6vectorIiSaIiEEEEbRKNS_17__normal_iteratorIT_T0_EESA_
	testb	%al, %al
	je	.L124
	movb	$1, -2774(%rbp)
	jmp	.L125
.L124:
	leaq	-2768(%rbp), %rdx
	leaq	-2320(%rbp), %rax
	movq	%rdx, %rsi
	movq	%rax, %rdi
	call	_ZNSt6vectorIiSaIiEE9push_backERKi
.L125:
	leaq	-2512(%rbp), %rax
	movq	%rax, %rdi
	call	_ZNSt6vectorIiSaIiEE3endEv
	movq	%rax, -1120(%rbp)
	leaq	-2512(%rbp), %rax
	movq	%rax, %rdi
	call	_ZNSt6vectorIiSaIiEE3endEv
	movq	%rax, %rbx
	leaq	-2512(%rbp), %rax
	movq	%rax, %rdi
	call	_ZNSt6vectorIiSaIiEE5beginEv
	movq	%rax, %rcx
	leaq	-2764(%rbp), %rax
	movq	%rax, %rdx
	movq	%rbx, %rsi
	movq	%rcx, %rdi
	call	_ZSt4findIN9__gnu_cxx17__normal_iteratorIPiSt6vectorIiSaIiEEEEiET_S7_S7_RKT0_
	movq	%rax, -2600(%rbp)
	leaq	-1120(%rbp), %rdx
	leaq	-2600(%rbp), %rax
	movq	%rdx, %rsi
	movq	%rax, %rdi
	call	_ZN9__gnu_cxxneIPiSt6vectorIiSaIiEEEEbRKNS_17__normal_iteratorIT_T0_EESA_
	testb	%al, %al
	je	.L126
	movb	$1, -2773(%rbp)
	jmp	.L127
.L126:
	leaq	-2764(%rbp), %rdx
	leaq	-2288(%rbp), %rax
	movq	%rdx, %rsi
	movq	%rax, %rdi
	call	_ZNSt6vectorIiSaIiEE9push_backERKi
.L127:
	leaq	-2480(%rbp), %rax
	movq	%rax, %rdi
	call	_ZNSt6vectorIiSaIiEE3endEv
	movq	%rax, -1120(%rbp)
	leaq	-2480(%rbp), %rax
	movq	%rax, %rdi
	call	_ZNSt6vectorIiSaIiEE3endEv
	movq	%rax, %rbx
	leaq	-2480(%rbp), %rax
	movq	%rax, %rdi
	call	_ZNSt6vectorIiSaIiEE5beginEv
	movq	%rax, %rcx
	leaq	-2760(%rbp), %rax
	movq	%rax, %rdx
	movq	%rbx, %rsi
	movq	%rcx, %rdi
	call	_ZSt4findIN9__gnu_cxx17__normal_iteratorIPiSt6vectorIiSaIiEEEEiET_S7_S7_RKT0_
	movq	%rax, -2064(%rbp)
	leaq	-1120(%rbp), %rdx
	leaq	-2064(%rbp), %rax
	movq	%rdx, %rsi
	movq	%rax, %rdi
	call	_ZN9__gnu_cxxeqIPiSt6vectorIiSaIiEEEEbRKNS_17__normal_iteratorIT_T0_EESA_
	testb	%al, %al
	je	.L128
	leaq	-2760(%rbp), %rdx
	leaq	-2256(%rbp), %rax
	movq	%rdx, %rsi
	movq	%rax, %rdi
	call	_ZNSt6vectorIiSaIiEE9push_backERKi
.L128:
	movzbl	-2774(%rbp), %eax
	cmpl	$1, %eax
	jne	.L129
	movzbl	-2773(%rbp), %eax
	cmpl	$1, %eax
	jne	.L129
	leaq	-2032(%rbp), %rax
	movq	%rax, %rdi
	call	_ZNSt3mapIiSt6vectorIiSaIiEESt4lessIiESaISt4pairIKiS2_EEE3endEv
	movq	%rax, -1120(%rbp)
	leaq	-2768(%rbp), %rdx
	leaq	-2032(%rbp), %rax
	movq	%rdx, %rsi
	movq	%rax, %rdi
	call	_ZNSt3mapIiSt6vectorIiSaIiEESt4lessIiESaISt4pairIKiS2_EEE4findERS6_
	movq	%rax, -1216(%rbp)
	leaq	-1120(%rbp), %rdx
	leaq	-1216(%rbp), %rax
	movq	%rdx, %rsi
	movq	%rax, %rdi
	call	_ZStneRKSt17_Rb_tree_iteratorISt4pairIKiSt6vectorIiSaIiEEEES8_
	testb	%al, %al
	je	.L129
	leaq	-2768(%rbp), %rdx
	leaq	-2032(%rbp), %rax
	movq	%rdx, %rsi
	movq	%rax, %rdi
	call	_ZNSt3mapIiSt6vectorIiSaIiEESt4lessIiESaISt4pairIKiS2_EEEixERS6_
	movq	%rax, %rdi
	call	_ZNSt6vectorIiSaIiEE3endEv
	movq	%rax, -1120(%rbp)
	leaq	-2768(%rbp), %rdx
	leaq	-2032(%rbp), %rax
	movq	%rdx, %rsi
	movq	%rax, %rdi
	call	_ZNSt3mapIiSt6vectorIiSaIiEESt4lessIiESaISt4pairIKiS2_EEEixERS6_
	movq	%rax, %rdi
	call	_ZNSt6vectorIiSaIiEE3endEv
	movq	%rax, %rbx
	leaq	-2768(%rbp), %rdx
	leaq	-2032(%rbp), %rax
	movq	%rdx, %rsi
	movq	%rax, %rdi
	call	_ZNSt3mapIiSt6vectorIiSaIiEESt4lessIiESaISt4pairIKiS2_EEEixERS6_
	movq	%rax, %rdi
	call	_ZNSt6vectorIiSaIiEE5beginEv
	movq	%rax, %rcx
	leaq	-2764(%rbp), %rax
	movq	%rax, %rdx
	movq	%rbx, %rsi
	movq	%rcx, %rdi
	call	_ZSt4findIN9__gnu_cxx17__normal_iteratorIPiSt6vectorIiSaIiEEEEiET_S7_S7_RKT0_
	movq	%rax, -1168(%rbp)
	leaq	-1120(%rbp), %rdx
	leaq	-1168(%rbp), %rax
	movq	%rdx, %rsi
	movq	%rax, %rdi
	call	_ZN9__gnu_cxxeqIPiSt6vectorIiSaIiEEEEbRKNS_17__normal_iteratorIT_T0_EESA_
	testb	%al, %al
	je	.L129
	movq	-2792(%rbp), %rax
	movsd	96(%rax), %xmm1
	movsd	-2568(%rbp), %xmm0
	comisd	%xmm1, %xmm0
	jb	.L130
	leaq	-2768(%rbp), %rdx
	leaq	-1984(%rbp), %rax
	movq	%rdx, %rsi
	movq	%rax, %rdi
	call	_ZNSt3mapIiiSt4lessIiESaISt4pairIKiiEEEixERS3_
	movl	(%rax), %eax
	movslq	%eax, %rdx
	leaq	-2448(%rbp), %rax
	movq	%rdx, %rsi
	movq	%rax, %rdi
	call	_ZNSt6vectorIdSaIdEEixEm
	movsd	(%rax), %xmm1
	movsd	-2568(%rbp), %xmm0
	comisd	%xmm1, %xmm0
	jb	.L130
	movl	$1, %eax
	jmp	.L133
.L130:
	movl	$0, %eax
.L133:
	testb	%al, %al
	je	.L129
	leaq	-2768(%rbp), %rdx
	leaq	-1840(%rbp), %rax
	movq	%rdx, %rsi
	movq	%rax, %rdi
	call	_ZNSt3mapIiSt6vectorIiSaIiEESt4lessIiESaISt4pairIKiS2_EEEixERS6_
	movq	%rax, %rdx
	leaq	-2764(%rbp), %rax
	movq	%rax, %rsi
	movq	%rdx, %rdi
	call	_ZNSt6vectorIiSaIiEE9push_backERKi
	addl	$1, -2720(%rbp)
.L129:
	leaq	-2768(%rbp), %rdx
	leaq	-1792(%rbp), %rax
	movq	%rdx, %rsi
	movq	%rax, %rdi
	call	_ZNSt3mapIiSt6vectorIiSaIiEESt4lessIiESaISt4pairIKiS2_EEEixERS6_
	movq	%rax, %rdx
	leaq	-2764(%rbp), %rax
	movq	%rax, %rsi
	movq	%rdx, %rdi
	call	_ZNSt6vectorIiSaIiEE9push_backERKi
.LEHE26:
	addl	$1, -2732(%rbp)
	movl	$1, %ebx
.L123:
	leaq	-1072(%rbp), %rax
	movq	%rax, %rdi
	call	_ZNSt6vectorIdSaIdEED1Ev
	cmpl	$1, %ebx
	jne	.L121
	jmp	.L135
.L121:
	leaq	-2544(%rbp), %rax
	movq	%rax, %rdi
	call	_ZNKSt6vectorIiSaIiEE4sizeEv
	movq	%rax, %rbx
	leaq	-2320(%rbp), %rax
	movq	%rax, %rdi
	call	_ZNSt6vectorIiSaIiEE3endEv
	movq	%rax, %r12
	leaq	-2320(%rbp), %rax
	movq	%rax, %rdi
	call	_ZNSt6vectorIiSaIiEE5beginEv
	movq	%r12, %rsi
	movq	%rax, %rdi
.LEHB27:
	call	_ZSt8distanceIN9__gnu_cxx17__normal_iteratorIPiSt6vectorIiSaIiEEEEENSt15iterator_traitsIT_E15difference_typeES8_S8_
	leaq	(%rbx,%rax), %rdx
	leaq	-2544(%rbp), %rax
	movq	%rdx, %rsi
	movq	%rax, %rdi
	call	_ZNSt6vectorIiSaIiEE7reserveEm
	leaq	-2320(%rbp), %rax
	movq	%rax, %rdi
	call	_ZNSt6vectorIiSaIiEE3endEv
	movq	%rax, %r12
	leaq	-2320(%rbp), %rax
	movq	%rax, %rdi
	call	_ZNSt6vectorIiSaIiEE5beginEv
	movq	%rax, %rbx
	leaq	-2544(%rbp), %rax
	movq	%rax, %rdi
	call	_ZNSt6vectorIiSaIiEE3endEv
	movq	%rax, -1120(%rbp)
	leaq	-1120(%rbp), %rdx
	leaq	-1072(%rbp), %rax
	movq	%rdx, %rsi
	movq	%rax, %rdi
	call	_ZN9__gnu_cxx17__normal_iteratorIPKiSt6vectorIiSaIiEEEC1IPiEERKNS0_IT_NS_11__enable_ifIXsrSt10__are_sameIS9_S8_E7__valueES5_E6__typeEEE
	movq	-1072(%rbp), %rsi
	leaq	-2544(%rbp), %rax
	movq	%r12, %rcx
	movq	%rbx, %rdx
	movq	%rax, %rdi
	call	_ZNSt6vectorIiSaIiEE6insertIN9__gnu_cxx17__normal_iteratorIPiS1_EEvEES6_NS4_IPKiS1_EET_SA_
	leaq	-2512(%rbp), %rax
	movq	%rax, %rdi
	call	_ZNKSt6vectorIiSaIiEE4sizeEv
	movq	%rax, %rbx
	leaq	-2288(%rbp), %rax
	movq	%rax, %rdi
	call	_ZNSt6vectorIiSaIiEE3endEv
	movq	%rax, %r12
	leaq	-2288(%rbp), %rax
	movq	%rax, %rdi
	call	_ZNSt6vectorIiSaIiEE5beginEv
	movq	%r12, %rsi
	movq	%rax, %rdi
	call	_ZSt8distanceIN9__gnu_cxx17__normal_iteratorIPiSt6vectorIiSaIiEEEEENSt15iterator_traitsIT_E15difference_typeES8_S8_
	leaq	(%rbx,%rax), %rdx
	leaq	-2512(%rbp), %rax
	movq	%rdx, %rsi
	movq	%rax, %rdi
	call	_ZNSt6vectorIiSaIiEE7reserveEm
	leaq	-2288(%rbp), %rax
	movq	%rax, %rdi
	call	_ZNSt6vectorIiSaIiEE3endEv
	movq	%rax, %r12
	leaq	-2288(%rbp), %rax
	movq	%rax, %rdi
	call	_ZNSt6vectorIiSaIiEE5beginEv
	movq	%rax, %rbx
	leaq	-2512(%rbp), %rax
	movq	%rax, %rdi
	call	_ZNSt6vectorIiSaIiEE3endEv
	movq	%rax, -1120(%rbp)
	leaq	-1120(%rbp), %rdx
	leaq	-1072(%rbp), %rax
	movq	%rdx, %rsi
	movq	%rax, %rdi
	call	_ZN9__gnu_cxx17__normal_iteratorIPKiSt6vectorIiSaIiEEEC1IPiEERKNS0_IT_NS_11__enable_ifIXsrSt10__are_sameIS9_S8_E7__valueES5_E6__typeEEE
	movq	-1072(%rbp), %rsi
	leaq	-2512(%rbp), %rax
	movq	%r12, %rcx
	movq	%rbx, %rdx
	movq	%rax, %rdi
	call	_ZNSt6vectorIiSaIiEE6insertIN9__gnu_cxx17__normal_iteratorIPiS1_EEvEES6_NS4_IPKiS1_EET_SA_
	leaq	-2480(%rbp), %rax
	movq	%rax, %rdi
	call	_ZNKSt6vectorIiSaIiEE4sizeEv
	movq	%rax, %rbx
	leaq	-2256(%rbp), %rax
	movq	%rax, %rdi
	call	_ZNSt6vectorIiSaIiEE3endEv
	movq	%rax, %r12
	leaq	-2256(%rbp), %rax
	movq	%rax, %rdi
	call	_ZNSt6vectorIiSaIiEE5beginEv
	movq	%r12, %rsi
	movq	%rax, %rdi
	call	_ZSt8distanceIN9__gnu_cxx17__normal_iteratorIPiSt6vectorIiSaIiEEEEENSt15iterator_traitsIT_E15difference_typeES8_S8_
	leaq	(%rbx,%rax), %rdx
	leaq	-2480(%rbp), %rax
	movq	%rdx, %rsi
	movq	%rax, %rdi
	call	_ZNSt6vectorIiSaIiEE7reserveEm
	leaq	-2256(%rbp), %rax
	movq	%rax, %rdi
	call	_ZNSt6vectorIiSaIiEE3endEv
	movq	%rax, %r12
	leaq	-2256(%rbp), %rax
	movq	%rax, %rdi
	call	_ZNSt6vectorIiSaIiEE5beginEv
	movq	%rax, %rbx
	leaq	-2480(%rbp), %rax
	movq	%rax, %rdi
	call	_ZNSt6vectorIiSaIiEE3endEv
	movq	%rax, -1120(%rbp)
	leaq	-1120(%rbp), %rdx
	leaq	-1072(%rbp), %rax
	movq	%rdx, %rsi
	movq	%rax, %rdi
	call	_ZN9__gnu_cxx17__normal_iteratorIPKiSt6vectorIiSaIiEEEC1IPiEERKNS0_IT_NS_11__enable_ifIXsrSt10__are_sameIS9_S8_E7__valueES5_E6__typeEEE
	movq	-1072(%rbp), %rsi
	leaq	-2480(%rbp), %rax
	movq	%r12, %rcx
	movq	%rbx, %rdx
	movq	%rax, %rdi
	call	_ZNSt6vectorIiSaIiEE6insertIN9__gnu_cxx17__normal_iteratorIPiS1_EEvEES6_NS4_IPKiS1_EET_SA_
	leaq	-2544(%rbp), %rax
	movq	%rax, %rdi
	call	_ZNSt6vectorIiSaIiEE3endEv
	movq	%rax, %rbx
	leaq	-2544(%rbp), %rax
	movq	%rax, %rdi
	call	_ZNSt6vectorIiSaIiEE5beginEv
	movq	%rax, %rcx
	leaq	-1744(%rbp), %rax
	movq	%rbx, %rdx
	movq	%rcx, %rsi
	movq	%rax, %rdi
	call	_ZNSt3setIiSt4lessIiESaIiEEC1IN9__gnu_cxx17__normal_iteratorIPiSt6vectorIiS2_EEEEET_SB_
.LEHE27:
	leaq	-1744(%rbp), %rax
	movq	%rax, %rdi
	call	_ZNKSt3setIiSt4lessIiESaIiEE3endEv
	movq	%rax, %rbx
	leaq	-1744(%rbp), %rax
	movq	%rax, %rdi
	call	_ZNKSt3setIiSt4lessIiESaIiEE5beginEv
	movq	%rax, %rcx
	leaq	-2544(%rbp), %rax
	movq	%rbx, %rdx
	movq	%rcx, %rsi
	movq	%rax, %rdi
.LEHB28:
	call	_ZNSt6vectorIiSaIiEE6assignISt23_Rb_tree_const_iteratorIiEvEEvT_S5_
	leaq	-2512(%rbp), %rax
	movq	%rax, %rdi
	call	_ZNSt6vectorIiSaIiEE3endEv
	movq	%rax, %rbx
	leaq	-2512(%rbp), %rax
	movq	%rax, %rdi
	call	_ZNSt6vectorIiSaIiEE5beginEv
	movq	%rax, %rcx
	leaq	-1696(%rbp), %rax
	movq	%rbx, %rdx
	movq	%rcx, %rsi
	movq	%rax, %rdi
	call	_ZNSt3setIiSt4lessIiESaIiEEC1IN9__gnu_cxx17__normal_iteratorIPiSt6vectorIiS2_EEEEET_SB_
.LEHE28:
	leaq	-1696(%rbp), %rax
	movq	%rax, %rdi
	call	_ZNKSt3setIiSt4lessIiESaIiEE3endEv
	movq	%rax, %rbx
	leaq	-1696(%rbp), %rax
	movq	%rax, %rdi
	call	_ZNKSt3setIiSt4lessIiESaIiEE5beginEv
	movq	%rax, %rcx
	leaq	-2512(%rbp), %rax
	movq	%rbx, %rdx
	movq	%rcx, %rsi
	movq	%rax, %rdi
.LEHB29:
	call	_ZNSt6vectorIiSaIiEE6assignISt23_Rb_tree_const_iteratorIiEvEEvT_S5_
	leaq	-2480(%rbp), %rax
	movq	%rax, %rdi
	call	_ZNSt6vectorIiSaIiEE3endEv
	movq	%rax, %rbx
	leaq	-2480(%rbp), %rax
	movq	%rax, %rdi
	call	_ZNSt6vectorIiSaIiEE5beginEv
	movq	%rax, %rcx
	leaq	-1648(%rbp), %rax
	movq	%rbx, %rdx
	movq	%rcx, %rsi
	movq	%rax, %rdi
	call	_ZNSt3setIiSt4lessIiESaIiEEC1IN9__gnu_cxx17__normal_iteratorIPiSt6vectorIiS2_EEEEET_SB_
.LEHE29:
	leaq	-1648(%rbp), %rax
	movq	%rax, %rdi
	call	_ZNKSt3setIiSt4lessIiESaIiEE3endEv
	movq	%rax, %rbx
	leaq	-1648(%rbp), %rax
	movq	%rax, %rdi
	call	_ZNKSt3setIiSt4lessIiESaIiEE5beginEv
	movq	%rax, %rcx
	leaq	-2480(%rbp), %rax
	movq	%rbx, %rdx
	movq	%rcx, %rsi
	movq	%rax, %rdi
.LEHB30:
	call	_ZNSt6vectorIiSaIiEE6assignISt23_Rb_tree_const_iteratorIiEvEEvT_S5_
.LEHE30:
	leaq	-1600(%rbp), %rax
	movq	%rax, %rdi
	call	_ZNSt3mapIiiSt4lessIiESaISt4pairIKiiEEEC1Ev
	leaq	-1552(%rbp), %rax
	movq	%rax, %rdi
	call	_ZNSt3mapIiiSt4lessIiESaISt4pairIKiiEEEC1Ev
	leaq	-1504(%rbp), %rax
	movq	%rax, %rdi
	call	_ZNSt3mapIiiSt4lessIiESaISt4pairIKiiEEEC1Ev
	leaq	-1456(%rbp), %rax
	movq	%rax, %rdi
	call	_ZNSt3mapIiiSt4lessIiESaISt4pairIKiiEEEC1Ev
	leaq	-1408(%rbp), %rax
	movq	%rax, %rdi
	call	_ZNSt3mapIiiSt4lessIiESaISt4pairIKiiEEEC1Ev
	leaq	-1360(%rbp), %rax
	movq	%rax, %rdi
	call	_ZNSt3mapIiiSt4lessIiESaISt4pairIKiiEEEC1Ev
	movl	$0, -2756(%rbp)
	movl	$0, -2752(%rbp)
	movl	$0, -2716(%rbp)
.L137:
	movl	-2716(%rbp), %eax
	movslq	%eax, %rbx
	leaq	-2544(%rbp), %rax
	movq	%rax, %rdi
	call	_ZNKSt6vectorIiSaIiEE4sizeEv
	cmpq	%rax, %rbx
	setb	%al
	testb	%al, %al
	je	.L136
	movl	-2716(%rbp), %eax
	movslq	%eax, %rdx
	leaq	-2544(%rbp), %rax
	movq	%rdx, %rsi
	movq	%rax, %rdi
	call	_ZNSt6vectorIiSaIiEEixEm
	movl	(%rax), %eax
	movl	%eax, -2752(%rbp)
	leaq	-2752(%rbp), %rdx
	leaq	-1600(%rbp), %rax
	movq	%rdx, %rsi
	movq	%rax, %rdi
.LEHB31:
	call	_ZNSt3mapIiiSt4lessIiESaISt4pairIKiiEEEixERS3_
	movl	-2756(%rbp), %edx
	movl	%edx, (%rax)
	leaq	-2756(%rbp), %rdx
	leaq	-1552(%rbp), %rax
	movq	%rdx, %rsi
	movq	%rax, %rdi
	call	_ZNSt3mapIiiSt4lessIiESaISt4pairIKiiEEEixERS3_
	movl	-2752(%rbp), %edx
	movl	%edx, (%rax)
	movl	-2756(%rbp), %eax
	addl	$1, %eax
	movl	%eax, -2756(%rbp)
	addl	$1, -2716(%rbp)
	jmp	.L137
.L136:
	movl	$0, -2748(%rbp)
	movl	$0, -2744(%rbp)
	movl	$0, -2712(%rbp)
.L139:
	movl	-2712(%rbp), %eax
	movslq	%eax, %rbx
	leaq	-2512(%rbp), %rax
	movq	%rax, %rdi
	call	_ZNKSt6vectorIiSaIiEE4sizeEv
	cmpq	%rax, %rbx
	setb	%al
	testb	%al, %al
	je	.L138
	movl	-2712(%rbp), %eax
	movslq	%eax, %rdx
	leaq	-2512(%rbp), %rax
	movq	%rdx, %rsi
	movq	%rax, %rdi
	call	_ZNSt6vectorIiSaIiEEixEm
	movl	(%rax), %eax
	movl	%eax, -2744(%rbp)
	leaq	-2744(%rbp), %rdx
	leaq	-1504(%rbp), %rax
	movq	%rdx, %rsi
	movq	%rax, %rdi
	call	_ZNSt3mapIiiSt4lessIiESaISt4pairIKiiEEEixERS3_
	movl	-2748(%rbp), %edx
	movl	%edx, (%rax)
	leaq	-2748(%rbp), %rdx
	leaq	-1456(%rbp), %rax
	movq	%rdx, %rsi
	movq	%rax, %rdi
	call	_ZNSt3mapIiiSt4lessIiESaISt4pairIKiiEEEixERS3_
	movl	-2744(%rbp), %edx
	movl	%edx, (%rax)
	movl	-2748(%rbp), %eax
	addl	$1, %eax
	movl	%eax, -2748(%rbp)
	addl	$1, -2712(%rbp)
	jmp	.L139
.L138:
	movl	$0, -2740(%rbp)
	movl	$0, -2736(%rbp)
	movl	$0, -2708(%rbp)
.L141:
	movl	-2708(%rbp), %eax
	movslq	%eax, %rbx
	leaq	-2480(%rbp), %rax
	movq	%rax, %rdi
	call	_ZNKSt6vectorIiSaIiEE4sizeEv
	cmpq	%rax, %rbx
	setb	%al
	testb	%al, %al
	je	.L140
	movl	-2708(%rbp), %eax
	movslq	%eax, %rdx
	leaq	-2480(%rbp), %rax
	movq	%rdx, %rsi
	movq	%rax, %rdi
	call	_ZNSt6vectorIiSaIiEEixEm
	movl	(%rax), %eax
	movl	%eax, -2736(%rbp)
	leaq	-2736(%rbp), %rdx
	leaq	-1408(%rbp), %rax
	movq	%rdx, %rsi
	movq	%rax, %rdi
	call	_ZNSt3mapIiiSt4lessIiESaISt4pairIKiiEEEixERS3_
	movl	-2740(%rbp), %edx
	movl	%edx, (%rax)
	leaq	-2740(%rbp), %rdx
	leaq	-1360(%rbp), %rax
	movq	%rdx, %rsi
	movq	%rax, %rdi
	call	_ZNSt3mapIiiSt4lessIiESaISt4pairIKiiEEEixERS3_
.LEHE31:
	movl	-2736(%rbp), %edx
	movl	%edx, (%rax)
	movl	-2740(%rbp), %eax
	addl	$1, %eax
	movl	%eax, -2740(%rbp)
	addl	$1, -2708(%rbp)
	jmp	.L141
.L140:
	leaq	-2544(%rbp), %rax
	movq	%rax, %rdi
	call	_ZNKSt6vectorIiSaIiEE4sizeEv
	movl	%eax, -2632(%rbp)
	leaq	-2512(%rbp), %rax
	movq	%rax, %rdi
	call	_ZNKSt6vectorIiSaIiEE4sizeEv
	movl	%eax, -2628(%rbp)
	leaq	-1168(%rbp), %rax
	movq	%rax, %rdi
	call	_ZNSaISt6vectorIdSaIdEEEC1Ev
	leaq	-1216(%rbp), %rax
	movq	%rax, %rdi
	call	_ZNSaIdEC1Ev
	pxor	%xmm0, %xmm0
	movsd	%xmm0, -1120(%rbp)
	movl	-2628(%rbp), %eax
	movslq	%eax, %rsi
	leaq	-1216(%rbp), %rcx
	leaq	-1120(%rbp), %rdx
	leaq	-1072(%rbp), %rax
	movq	%rax, %rdi
.LEHB32:
	call	_ZNSt6vectorIdSaIdEEC1EmRKdRKS0_
.LEHE32:
	movl	-2632(%rbp), %eax
	movslq	%eax, %rsi
	leaq	-1168(%rbp), %rcx
	leaq	-1072(%rbp), %rdx
	leaq	-2224(%rbp), %rax
	movq	%rax, %rdi
.LEHB33:
	call	_ZNSt6vectorIS_IdSaIdEESaIS1_EEC1EmRKS1_RKS2_
.LEHE33:
	leaq	-1072(%rbp), %rax
	movq	%rax, %rdi
	call	_ZNSt6vectorIdSaIdEED1Ev
	leaq	-1216(%rbp), %rax
	movq	%rax, %rdi
	call	_ZNSaIdED1Ev
	leaq	-1168(%rbp), %rax
	movq	%rax, %rdi
	call	_ZNSaISt6vectorIdSaIdEEED1Ev
	leaq	-1312(%rbp), %rax
	movq	%rax, %rdi
	call	_ZNSt3mapIiSt6vectorIiSaIiEESt4lessIiESaISt4pairIKiS2_EEEC1Ev
	movl	$0, -2704(%rbp)
.L143:
	movl	-2704(%rbp), %eax
	movslq	%eax, %rbx
	leaq	-2384(%rbp), %rax
	movq	%rax, %rdi
	call	_ZNKSt6vectorIS_IdSaIdEESaIS1_EE4sizeEv
	cmpq	%rax, %rbx
	setb	%al
	testb	%al, %al
	je	.L142
	movl	-2704(%rbp), %eax
	movslq	%eax, %rdx
	leaq	-2384(%rbp), %rax
	movq	%rdx, %rsi
	movq	%rax, %rdi
	call	_ZNSt6vectorIS_IdSaIdEESaIS1_EEixEm
	movl	$1, %esi
	movq	%rax, %rdi
	call	_ZNSt6vectorIdSaIdEEixEm
	movsd	(%rax), %xmm0
	cvttsd2sil	%xmm0, %eax
	movl	%eax, -1168(%rbp)
	movl	-2704(%rbp), %eax
	movslq	%eax, %rdx
	leaq	-2384(%rbp), %rax
	movq	%rdx, %rsi
	movq	%rax, %rdi
	call	_ZNSt6vectorIS_IdSaIdEESaIS1_EEixEm
	movl	$2, %esi
	movq	%rax, %rdi
	call	_ZNSt6vectorIdSaIdEEixEm
	movsd	(%rax), %xmm0
	cvttsd2sil	%xmm0, %eax
	movl	%eax, -1120(%rbp)
	movl	-2704(%rbp), %eax
	movslq	%eax, %rdx
	leaq	-2384(%rbp), %rax
	movq	%rdx, %rsi
	movq	%rax, %rdi
	call	_ZNSt6vectorIS_IdSaIdEESaIS1_EEixEm
	movl	$4, %esi
	movq	%rax, %rdi
	call	_ZNSt6vectorIdSaIdEEixEm
	movq	%rax, %rbx
	leaq	-1120(%rbp), %rdx
	leaq	-1504(%rbp), %rax
	movq	%rdx, %rsi
	movq	%rax, %rdi
.LEHB34:
	call	_ZNSt3mapIiiSt4lessIiESaISt4pairIKiiEEEixERS3_
	movl	(%rax), %eax
	movslq	%eax, %r12
	leaq	-1168(%rbp), %rdx
	leaq	-1600(%rbp), %rax
	movq	%rdx, %rsi
	movq	%rax, %rdi
	call	_ZNSt3mapIiiSt4lessIiESaISt4pairIKiiEEEixERS3_
	movl	(%rax), %eax
	movslq	%eax, %rdx
	leaq	-2224(%rbp), %rax
	movq	%rdx, %rsi
	movq	%rax, %rdi
	call	_ZNSt6vectorIS_IdSaIdEESaIS1_EEixEm
	movq	%r12, %rsi
	movq	%rax, %rdi
	call	_ZNSt6vectorIdSaIdEEixEm
	movsd	(%rbx), %xmm0
	movsd	%xmm0, (%rax)
	leaq	-1120(%rbp), %rdx
	leaq	-1312(%rbp), %rax
	movq	%rdx, %rsi
	movq	%rax, %rdi
	call	_ZNSt3mapIiSt6vectorIiSaIiEESt4lessIiESaISt4pairIKiS2_EEEixERS6_
	movq	%rax, %rbx
	movl	-2704(%rbp), %eax
	movslq	%eax, %rdx
	leaq	-2384(%rbp), %rax
	movq	%rdx, %rsi
	movq	%rax, %rdi
	call	_ZNSt6vectorIS_IdSaIdEESaIS1_EEixEm
	movl	$3, %esi
	movq	%rax, %rdi
	call	_ZNSt6vectorIdSaIdEEixEm
	movsd	(%rax), %xmm0
	cvttsd2sil	%xmm0, %eax
	movl	%eax, -1072(%rbp)
	leaq	-1072(%rbp), %rax
	movq	%rax, %rsi
	movq	%rbx, %rdi
	call	_ZNSt6vectorIiSaIiEE9push_backEOi
.LEHE34:
	addl	$1, -2704(%rbp)
	jmp	.L143
.L142:
	leaq	-1264(%rbp), %rax
	movq	%rax, %rdi
	call	_ZNSt3mapIiSt6vectorIiSaIiEESt4lessIiESaISt4pairIKiS2_EEEC1Ev
	leaq	-1888(%rbp), %rax
	movq	%rax, %rdi
	call	_ZNSt3mapIiSt6vectorIiSaIiEESt4lessIiESaISt4pairIKiS2_EEE5beginEv
	movq	%rax, -1120(%rbp)
.L145:
	leaq	-1888(%rbp), %rax
	movq	%rax, %rdi
	call	_ZNSt3mapIiSt6vectorIiSaIiEESt4lessIiESaISt4pairIKiS2_EEE3endEv
	movq	%rax, -1072(%rbp)
	leaq	-1072(%rbp), %rdx
	leaq	-1120(%rbp), %rax
	movq	%rdx, %rsi
	movq	%rax, %rdi
	call	_ZStneRKSt17_Rb_tree_iteratorISt4pairIKiSt6vectorIiSaIiEEEES8_
	testb	%al, %al
	je	.L144
	leaq	-1120(%rbp), %rax
	movq	%rax, %rdi
	call	_ZNKSt17_Rb_tree_iteratorISt4pairIKiSt6vectorIiSaIiEEEEptEv
	movq	%rax, %rdx
	leaq	-1264(%rbp), %rax
	movq	%rdx, %rsi
	movq	%rax, %rdi
.LEHB35:
	call	_ZNSt3mapIiSt6vectorIiSaIiEESt4lessIiESaISt4pairIKiS2_EEEixERS6_
	movq	%rax, %rdi
	call	_ZSt13back_inserterISt6vectorIiSaIiEEESt20back_insert_iteratorIT_ERS4_
	movq	%rax, %r14
	leaq	-2544(%rbp), %rax
	movq	%rax, %rdi
	call	_ZNSt6vectorIiSaIiEE3endEv
	movq	%rax, %r13
	leaq	-2544(%rbp), %rax
	movq	%rax, %rdi
	call	_ZNSt6vectorIiSaIiEE5beginEv
	movq	%rax, %r12
	leaq	-1120(%rbp), %rax
	movq	%rax, %rdi
	call	_ZNKSt17_Rb_tree_iteratorISt4pairIKiSt6vectorIiSaIiEEEEptEv
	addq	$8, %rax
	movq	%rax, %rdi
	call	_ZNSt6vectorIiSaIiEE3endEv
	movq	%rax, %rbx
	leaq	-1120(%rbp), %rax
	movq	%rax, %rdi
	call	_ZNKSt17_Rb_tree_iteratorISt4pairIKiSt6vectorIiSaIiEEEEptEv
	addq	$8, %rax
	movq	%rax, %rdi
	call	_ZNSt6vectorIiSaIiEE5beginEv
	movq	%r14, %r8
	movq	%r13, %rcx
	movq	%r12, %rdx
	movq	%rbx, %rsi
	movq	%rax, %rdi
	call	_ZSt16set_intersectionIN9__gnu_cxx17__normal_iteratorIPiSt6vectorIiSaIiEEEES6_St20back_insert_iteratorIS5_EET1_T_SA_T0_SB_S9_
.LEHE35:
	leaq	-1120(%rbp), %rax
	movq	%rax, %rdi
	call	_ZNSt17_Rb_tree_iteratorISt4pairIKiSt6vectorIiSaIiEEEEppEv
	jmp	.L145
.L144:
	leaq	-1120(%rbp), %rax
	movq	%rax, %rdi
	call	_ZNSaIdEC1Ev
	pxor	%xmm0, %xmm0
	movsd	%xmm0, -1072(%rbp)
	movl	-2632(%rbp), %eax
	movslq	%eax, %rsi
	leaq	-1120(%rbp), %rcx
	leaq	-1072(%rbp), %rdx
	leaq	-2192(%rbp), %rax
	movq	%rax, %rdi
.LEHB36:
	call	_ZNSt6vectorIdSaIdEEC1EmRKdRKS0_
.LEHE36:
	leaq	-1120(%rbp), %rax
	movq	%rax, %rdi
	call	_ZNSaIdED1Ev
	leaq	-1120(%rbp), %rax
	movq	%rax, %rdi
	call	_ZNSaIdEC1Ev
	pxor	%xmm0, %xmm0
	movsd	%xmm0, -1072(%rbp)
	movl	-2632(%rbp), %eax
	movslq	%eax, %rsi
	leaq	-1120(%rbp), %rcx
	leaq	-1072(%rbp), %rdx
	leaq	-2160(%rbp), %rax
	movq	%rax, %rdi
.LEHB37:
	call	_ZNSt6vectorIdSaIdEEC1EmRKdRKS0_
.LEHE37:
	leaq	-1120(%rbp), %rax
	movq	%rax, %rdi
	call	_ZNSaIdED1Ev
	movl	$0, -2700(%rbp)
.L152:
	movl	-2700(%rbp), %eax
	cmpl	-2632(%rbp), %eax
	jge	.L146
	movl	$0, -2696(%rbp)
.L151:
	movl	-2696(%rbp), %eax
	cmpl	-2628(%rbp), %eax
	jge	.L147
	movl	-2696(%rbp), %eax
	movslq	%eax, %rbx
	movl	-2700(%rbp), %eax
	movslq	%eax, %rdx
	leaq	-2224(%rbp), %rax
	movq	%rdx, %rsi
	movq	%rax, %rdi
	call	_ZNSt6vectorIS_IdSaIdEESaIS1_EEixEm
	movq	%rbx, %rsi
	movq	%rax, %rdi
	call	_ZNSt6vectorIdSaIdEEixEm
	movsd	(%rax), %xmm3
	movsd	%xmm3, -2800(%rbp)
	movl	-2700(%rbp), %eax
	movslq	%eax, %rdx
	leaq	-2192(%rbp), %rax
	movq	%rdx, %rsi
	movq	%rax, %rdi
	call	_ZNSt6vectorIdSaIdEEixEm
	movsd	(%rax), %xmm0
	addsd	-2800(%rbp), %xmm0
	movsd	%xmm0, (%rax)
	movl	-2696(%rbp), %eax
	movslq	%eax, %rbx
	movl	-2700(%rbp), %eax
	movslq	%eax, %rdx
	leaq	-2224(%rbp), %rax
	movq	%rdx, %rsi
	movq	%rax, %rdi
	call	_ZNSt6vectorIS_IdSaIdEESaIS1_EEixEm
	movq	%rbx, %rsi
	movq	%rax, %rdi
	call	_ZNSt6vectorIdSaIdEEixEm
	movsd	(%rax), %xmm0
	pxor	%xmm1, %xmm1
	ucomisd	%xmm1, %xmm0
	jp	.L148
	pxor	%xmm1, %xmm1
	ucomisd	%xmm1, %xmm0
	jne	.L148
	movl	-2700(%rbp), %eax
	movslq	%eax, %rdx
	leaq	-2160(%rbp), %rax
	movq	%rdx, %rsi
	movq	%rax, %rdi
	call	_ZNSt6vectorIdSaIdEEixEm
	movsd	(%rax), %xmm4
	movsd	%xmm4, -2800(%rbp)
	jmp	.L150
.L148:
	movl	-2700(%rbp), %eax
	movslq	%eax, %rdx
	leaq	-2160(%rbp), %rax
	movq	%rdx, %rsi
	movq	%rax, %rdi
	call	_ZNSt6vectorIdSaIdEEixEm
	movsd	(%rax), %xmm1
	movsd	.LC6(%rip), %xmm0
	addsd	%xmm0, %xmm1
	movsd	%xmm1, -2800(%rbp)
.L150:
	movl	-2700(%rbp), %eax
	movslq	%eax, %rdx
	leaq	-2160(%rbp), %rax
	movq	%rdx, %rsi
	movq	%rax, %rdi
	call	_ZNSt6vectorIdSaIdEEixEm
	movsd	-2800(%rbp), %xmm5
	movsd	%xmm5, (%rax)
	addl	$1, -2696(%rbp)
	jmp	.L151
.L147:
	addl	$1, -2700(%rbp)
	jmp	.L152
.L146:
	movl	$0, -2692(%rbp)
.L157:
	movl	-2692(%rbp), %eax
	cmpl	-2632(%rbp), %eax
	jge	.L153
	movl	-2692(%rbp), %eax
	movslq	%eax, %rdx
	leaq	-2192(%rbp), %rax
	movq	%rdx, %rsi
	movq	%rax, %rdi
	call	_ZNSt6vectorIdSaIdEEixEm
	movsd	(%rax), %xmm0
	pxor	%xmm1, %xmm1
	ucomisd	%xmm1, %xmm0
	jp	.L154
	pxor	%xmm1, %xmm1
	ucomisd	%xmm1, %xmm0
	jne	.L154
	movl	-2692(%rbp), %eax
	movslq	%eax, %rdx
	leaq	-2192(%rbp), %rax
	movq	%rdx, %rsi
	movq	%rax, %rdi
	call	_ZNSt6vectorIdSaIdEEixEm
	movsd	(%rax), %xmm6
	movsd	%xmm6, -2800(%rbp)
	jmp	.L156
.L154:
	movl	-2692(%rbp), %eax
	movslq	%eax, %rdx
	leaq	-2192(%rbp), %rax
	movq	%rdx, %rsi
	movq	%rax, %rdi
	call	_ZNSt6vectorIdSaIdEEixEm
	movsd	(%rax), %xmm2
	movsd	%xmm2, -2800(%rbp)
	movl	-2692(%rbp), %eax
	movslq	%eax, %rdx
	leaq	-2160(%rbp), %rax
	movq	%rdx, %rsi
	movq	%rax, %rdi
	call	_ZNSt6vectorIdSaIdEEixEm
	movsd	(%rax), %xmm0
	movsd	-2800(%rbp), %xmm2
	divsd	%xmm0, %xmm2
	movsd	%xmm2, -2800(%rbp)
.L156:
	movl	-2692(%rbp), %eax
	movslq	%eax, %rdx
	leaq	-2192(%rbp), %rax
	movq	%rdx, %rsi
	movq	%rax, %rdi
	call	_ZNSt6vectorIdSaIdEEixEm
	movsd	-2800(%rbp), %xmm7
	movsd	%xmm7, (%rax)
	addl	$1, -2692(%rbp)
	jmp	.L157
.L153:
	leaq	-1168(%rbp), %rax
	movq	%rax, %rdi
	call	_ZNSaISt6vectorIdSaIdEEEC1Ev
	leaq	-1216(%rbp), %rax
	movq	%rax, %rdi
	call	_ZNSaIdEC1Ev
	pxor	%xmm0, %xmm0
	movsd	%xmm0, -1120(%rbp)
	movl	-2628(%rbp), %eax
	movslq	%eax, %rsi
	leaq	-1216(%rbp), %rcx
	leaq	-1120(%rbp), %rdx
	leaq	-1072(%rbp), %rax
	movq	%rax, %rdi
.LEHB38:
	call	_ZNSt6vectorIdSaIdEEC1EmRKdRKS0_
.LEHE38:
	movl	-2632(%rbp), %eax
	movslq	%eax, %rsi
	leaq	-1168(%rbp), %rcx
	leaq	-1072(%rbp), %rdx
	leaq	-2128(%rbp), %rax
	movq	%rax, %rdi
.LEHB39:
	call	_ZNSt6vectorIS_IdSaIdEESaIS1_EEC1EmRKS1_RKS2_
.LEHE39:
	leaq	-1072(%rbp), %rax
	movq	%rax, %rdi
	call	_ZNSt6vectorIdSaIdEED1Ev
	leaq	-1216(%rbp), %rax
	movq	%rax, %rdi
	call	_ZNSaIdED1Ev
	leaq	-1168(%rbp), %rax
	movq	%rax, %rdi
	call	_ZNSaISt6vectorIdSaIdEEED1Ev
	leaq	-1168(%rbp), %rax
	movq	%rax, %rdi
	call	_ZNSaISt6vectorIdSaIdEEEC1Ev
	leaq	-1216(%rbp), %rax
	movq	%rax, %rdi
	call	_ZNSaIdEC1Ev
	pxor	%xmm0, %xmm0
	movsd	%xmm0, -1120(%rbp)
	movl	-2632(%rbp), %eax
	movslq	%eax, %rsi
	leaq	-1216(%rbp), %rcx
	leaq	-1120(%rbp), %rdx
	leaq	-1072(%rbp), %rax
	movq	%rax, %rdi
.LEHB40:
	call	_ZNSt6vectorIdSaIdEEC1EmRKdRKS0_
.LEHE40:
	movl	-2632(%rbp), %eax
	movslq	%eax, %rsi
	leaq	-1168(%rbp), %rcx
	leaq	-1072(%rbp), %rdx
	leaq	-2096(%rbp), %rax
	movq	%rax, %rdi
.LEHB41:
	call	_ZNSt6vectorIS_IdSaIdEESaIS1_EEC1EmRKS1_RKS2_
.LEHE41:
	leaq	-1072(%rbp), %rax
	movq	%rax, %rdi
	call	_ZNSt6vectorIdSaIdEED1Ev
	leaq	-1216(%rbp), %rax
	movq	%rax, %rdi
	call	_ZNSaIdED1Ev
	leaq	-1168(%rbp), %rax
	movq	%rax, %rdi
	call	_ZNSaISt6vectorIdSaIdEEED1Ev
	movl	$0, -2688(%rbp)
.L167:
	movl	-2688(%rbp), %eax
	cmpl	-2632(%rbp), %eax
	jge	.L158
	movl	$0, -2684(%rbp)
.L166:
	movl	-2684(%rbp), %eax
	cmpl	-2628(%rbp), %eax
	jge	.L159
	movl	-2684(%rbp), %eax
	movslq	%eax, %rbx
	movl	-2688(%rbp), %eax
	movslq	%eax, %rdx
	leaq	-2224(%rbp), %rax
	movq	%rdx, %rsi
	movq	%rax, %rdi
	call	_ZNSt6vectorIS_IdSaIdEESaIS1_EEixEm
	movq	%rbx, %rsi
	movq	%rax, %rdi
	call	_ZNSt6vectorIdSaIdEEixEm
	movsd	(%rax), %xmm0
	movsd	%xmm0, -2560(%rbp)
	movq	-2792(%rbp), %rax
	movsd	96(%rax), %xmm1
	movsd	-2560(%rbp), %xmm0
	comisd	%xmm1, %xmm0
	jb	.L160
	movl	-2688(%rbp), %eax
	movslq	%eax, %rdx
	leaq	-2192(%rbp), %rax
	movq	%rdx, %rsi
	movq	%rax, %rdi
	call	_ZNSt6vectorIdSaIdEEixEm
	movsd	(%rax), %xmm1
	movsd	-2560(%rbp), %xmm0
	comisd	%xmm1, %xmm0
	jb	.L160
	movl	$1, %eax
	jmp	.L163
.L160:
	movl	$0, %eax
.L163:
	testb	%al, %al
	je	.L164
	movl	-2684(%rbp), %eax
	movslq	%eax, %rbx
	movl	-2688(%rbp), %eax
	movslq	%eax, %rdx
	leaq	-2128(%rbp), %rax
	movq	%rdx, %rsi
	movq	%rax, %rdi
	call	_ZNSt6vectorIS_IdSaIdEESaIS1_EEixEm
	movq	%rbx, %rsi
	movq	%rax, %rdi
	call	_ZNSt6vectorIdSaIdEEixEm
	movsd	.LC6(%rip), %xmm0
	movsd	%xmm0, (%rax)
	jmp	.L165
.L164:
	movl	-2684(%rbp), %eax
	movslq	%eax, %rbx
	movl	-2688(%rbp), %eax
	movslq	%eax, %rdx
	leaq	-2128(%rbp), %rax
	movq	%rdx, %rsi
	movq	%rax, %rdi
	call	_ZNSt6vectorIS_IdSaIdEESaIS1_EEixEm
	movq	%rbx, %rsi
	movq	%rax, %rdi
	call	_ZNSt6vectorIdSaIdEEixEm
	pxor	%xmm0, %xmm0
	movsd	%xmm0, (%rax)
.L165:
	addl	$1, -2684(%rbp)
	jmp	.L166
.L159:
	addl	$1, -2688(%rbp)
	jmp	.L167
.L158:
	movl	$0, -2680(%rbp)
.L171:
	movl	-2680(%rbp), %eax
	cmpl	-2632(%rbp), %eax
	jge	.L168
	movl	-2680(%rbp), %eax
	movl	%eax, -2676(%rbp)
.L170:
	movl	-2676(%rbp), %eax
	cmpl	-2632(%rbp), %eax
	jge	.L169
	movl	-2676(%rbp), %eax
	movslq	%eax, %rdx
	leaq	-2128(%rbp), %rax
	movq	%rdx, %rsi
	movq	%rax, %rdi
	call	_ZNSt6vectorIS_IdSaIdEESaIS1_EEixEm
	movq	%rax, %rdx
	leaq	-1072(%rbp), %rax
	movq	%rdx, %rsi
	movq	%rax, %rdi
.LEHB42:
	call	_ZNSt6vectorIdSaIdEEC1ERKS1_
.LEHE42:
	movl	-2680(%rbp), %eax
	movslq	%eax, %rdx
	leaq	-2128(%rbp), %rax
	movq	%rdx, %rsi
	movq	%rax, %rdi
	call	_ZNSt6vectorIS_IdSaIdEESaIS1_EEixEm
	movq	%rax, %rdx
	leaq	-1120(%rbp), %rax
	movq	%rdx, %rsi
	movq	%rax, %rdi
.LEHB43:
	call	_ZNSt6vectorIdSaIdEEC1ERKS1_
.LEHE43:
	leaq	-1072(%rbp), %rdx
	leaq	-1120(%rbp), %rax
	movq	%rdx, %rsi
	movq	%rax, %rdi
.LEHB44:
	call	_Z24jaccard_similarity_scoreSt6vectorIdSaIdEES1_@PLT
.LEHE44:
	movq	%xmm0, %rax
	movq	%rax, -2552(%rbp)
	leaq	-1120(%rbp), %rax
	movq	%rax, %rdi
	call	_ZNSt6vectorIdSaIdEED1Ev
	leaq	-1072(%rbp), %rax
	movq	%rax, %rdi
	call	_ZNSt6vectorIdSaIdEED1Ev
	movl	-2676(%rbp), %eax
	movslq	%eax, %rbx
	movl	-2680(%rbp), %eax
	movslq	%eax, %rdx
	leaq	-2096(%rbp), %rax
	movq	%rdx, %rsi
	movq	%rax, %rdi
	call	_ZNSt6vectorIS_IdSaIdEESaIS1_EEixEm
	movq	%rbx, %rsi
	movq	%rax, %rdi
	call	_ZNSt6vectorIdSaIdEEixEm
	movsd	-2552(%rbp), %xmm0
	movsd	%xmm0, (%rax)
	movl	-2680(%rbp), %eax
	movslq	%eax, %rbx
	movl	-2676(%rbp), %eax
	movslq	%eax, %rdx
	leaq	-2096(%rbp), %rax
	movq	%rdx, %rsi
	movq	%rax, %rdi
	call	_ZNSt6vectorIS_IdSaIdEESaIS1_EEixEm
	movq	%rbx, %rsi
	movq	%rax, %rdi
	call	_ZNSt6vectorIdSaIdEEixEm
	movsd	-2552(%rbp), %xmm0
	movsd	%xmm0, (%rax)
	addl	$1, -2676(%rbp)
	jmp	.L170
.L169:
	addl	$1, -2680(%rbp)
	jmp	.L171
.L168:
	leaq	-736(%rbp), %rax
	movq	%rax, %rdi
	call	_ZN11Global_infoC1Ev
	leaq	-1264(%rbp), %rdx
	leaq	-736(%rbp), %rax
	movq	%rdx, %rsi
	movq	%rax, %rdi
.LEHB45:
	call	_ZNSt3mapIiSt6vectorIiSaIiEESt4lessIiESaISt4pairIKiS2_EEEaSERKS9_
	leaq	-2192(%rbp), %rax
	leaq	-736(%rbp), %rdx
	addq	$48, %rdx
	movq	%rax, %rsi
	movq	%rdx, %rdi
	call	_ZNSt6vectorIdSaIdEEaSERKS1_
	leaq	-2096(%rbp), %rax
	leaq	-736(%rbp), %rdx
	addq	$72, %rdx
	movq	%rax, %rsi
	movq	%rdx, %rdi
	call	_ZNSt6vectorIS_IdSaIdEESaIS1_EEaSERKS3_
	movq	-2792(%rbp), %rax
	movsd	88(%rax), %xmm0
	movsd	%xmm0, -640(%rbp)
	movq	-2792(%rbp), %rax
	movsd	88(%rax), %xmm0
	movsd	.LC3(%rip), %xmm1
	divsd	%xmm1, %xmm0
	movsd	%xmm0, -632(%rbp)
	pxor	%xmm0, %xmm0
	movsd	%xmm0, -624(%rbp)
	leaq	-1600(%rbp), %rax
	leaq	-736(%rbp), %rdx
	addq	$120, %rdx
	movq	%rax, %rsi
	movq	%rdx, %rdi
	call	_ZNSt3mapIiiSt4lessIiESaISt4pairIKiiEEEaSERKS6_
	leaq	-1504(%rbp), %rax
	leaq	-736(%rbp), %rdx
	addq	$168, %rdx
	movq	%rax, %rsi
	movq	%rdx, %rdi
	call	_ZNSt3mapIiiSt4lessIiESaISt4pairIKiiEEEaSERKS6_
	leaq	-1552(%rbp), %rax
	leaq	-736(%rbp), %rdx
	addq	$216, %rdx
	movq	%rax, %rsi
	movq	%rdx, %rdi
	call	_ZNSt3mapIiiSt4lessIiESaISt4pairIKiiEEEaSERKS6_
	leaq	-1456(%rbp), %rax
	leaq	-736(%rbp), %rdx
	addq	$264, %rdx
	movq	%rax, %rsi
	movq	%rdx, %rdi
	call	_ZNSt3mapIiiSt4lessIiESaISt4pairIKiiEEEaSERKS6_
	movl	$0, -2672(%rbp)
	movl	$0, -2668(%rbp)
.L176:
	movl	-2668(%rbp), %eax
	cmpl	-2632(%rbp), %eax
	jge	.L172
	movl	$0, -2664(%rbp)
.L175:
	movl	-2664(%rbp), %eax
	cmpl	-2628(%rbp), %eax
	jge	.L173
	movl	-2664(%rbp), %eax
	movslq	%eax, %rbx
	movl	-2668(%rbp), %eax
	movslq	%eax, %rdx
	leaq	-2224(%rbp), %rax
	movq	%rdx, %rsi
	movq	%rax, %rdi
	call	_ZNSt6vectorIS_IdSaIdEESaIS1_EEixEm
	movq	%rbx, %rsi
	movq	%rax, %rdi
	call	_ZNSt6vectorIdSaIdEEixEm
	movsd	(%rax), %xmm0
	pxor	%xmm1, %xmm1
	ucomisd	%xmm1, %xmm0
	setp	%al
	movl	$1, %edx
	pxor	%xmm1, %xmm1
	ucomisd	%xmm1, %xmm0
	cmovne	%edx, %eax
	testb	%al, %al
	je	.L174
	addl	$1, -2672(%rbp)
.L174:
	addl	$1, -2664(%rbp)
	jmp	.L175
.L173:
	addl	$1, -2668(%rbp)
	jmp	.L176
.L172:
	movl	-2672(%rbp), %eax
	movl	%eax, -424(%rbp)
	leaq	-2224(%rbp), %rax
	leaq	-736(%rbp), %rdx
	addq	$320, %rdx
	movq	%rax, %rsi
	movq	%rdx, %rdi
	call	_ZNSt6vectorIS_IdSaIdEESaIS1_EEaSERKS3_
.LEHE45:
	movl	$0, -2660(%rbp)
.L180:
	movl	-2660(%rbp), %eax
	movslq	%eax, %rbx
	movq	-2792(%rbp), %rax
	addq	$32, %rax
	movq	%rax, %rdi
	call	_ZNKSt6vectorIP11GraphRecsysSaIS1_EE4sizeEv
	cmpq	%rax, %rbx
	setb	%al
	testb	%al, %al
	je	.L177
	leaq	-2064(%rbp), %rax
	movq	%rax, %rdi
	call	_ZNSt6vectorIiSaIiEEC1Ev
	leaq	-1840(%rbp), %rax
	movq	%rax, %rdi
	call	_ZNSt3mapIiSt6vectorIiSaIiEESt4lessIiESaISt4pairIKiS2_EEE5beginEv
	movq	%rax, -1120(%rbp)
.L179:
	leaq	-1840(%rbp), %rax
	movq	%rax, %rdi
	call	_ZNSt3mapIiSt6vectorIiSaIiEESt4lessIiESaISt4pairIKiS2_EEE3endEv
	movq	%rax, -1072(%rbp)
	leaq	-1072(%rbp), %rdx
	leaq	-1120(%rbp), %rax
	movq	%rdx, %rsi
	movq	%rax, %rdi
	call	_ZStneRKSt17_Rb_tree_iteratorISt4pairIKiSt6vectorIiSaIiEEEES8_
	testb	%al, %al
	je	.L178
	leaq	-1120(%rbp), %rax
	movq	%rax, %rdi
	call	_ZNKSt17_Rb_tree_iteratorISt4pairIKiSt6vectorIiSaIiEEEEptEv
	movq	%rax, %rdx
	leaq	-2064(%rbp), %rax
	movq	%rdx, %rsi
	movq	%rax, %rdi
.LEHB46:
	call	_ZNSt6vectorIiSaIiEE9push_backERKi
	leaq	-1120(%rbp), %rax
	movq	%rax, %rdi
	call	_ZNSt17_Rb_tree_iteratorISt4pairIKiSt6vectorIiSaIiEEEEppEv
	jmp	.L179
.L178:
	movl	-2660(%rbp), %eax
	cltq
	movq	-2792(%rbp), %rdx
	addq	$32, %rdx
	movq	%rax, %rsi
	movq	%rdx, %rdi
	call	_ZNSt6vectorIP11GraphRecsysSaIS1_EEixEm
	movq	(%rax), %rbx
	leaq	-2416(%rbp), %rdx
	leaq	-1120(%rbp), %rax
	movq	%rdx, %rsi
	movq	%rax, %rdi
	call	_ZNSt6vectorIiSaIiEEC1ERKS1_
.LEHE46:
	leaq	-2032(%rbp), %rdx
	leaq	-1072(%rbp), %rax
	movq	%rdx, %rsi
	movq	%rax, %rdi
.LEHB47:
	call	_ZNSt3mapIiSt6vectorIiSaIiEESt4lessIiESaISt4pairIKiS2_EEEC1ERKS9_
.LEHE47:
	leaq	-2064(%rbp), %rdx
	leaq	-1168(%rbp), %rax
	movq	%rdx, %rsi
	movq	%rax, %rdi
.LEHB48:
	call	_ZNSt6vectorIiSaIiEEC1ERKS1_
.LEHE48:
	leaq	-1216(%rbp), %rax
	leaq	-1120(%rbp), %rsi
	leaq	-1072(%rbp), %rcx
	leaq	-1168(%rbp), %rdx
	movq	%rsi, %r8
	movq	%rbx, %rsi
	movq	%rax, %rdi
.LEHB49:
	call	_ZN11GraphRecsys20get_recommended_listESt6vectorIiSaIiEESt3mapIiS2_St4lessIiESaISt4pairIKiS2_EEES2_@PLT
.LEHE49:
	leaq	-1168(%rbp), %rax
	movq	%rax, %rdi
	call	_ZNSt6vectorIiSaIiEED1Ev
	leaq	-1072(%rbp), %rax
	movq	%rax, %rdi
	call	_ZNSt3mapIiSt6vectorIiSaIiEESt4lessIiESaISt4pairIKiS2_EEED1Ev
	leaq	-1120(%rbp), %rax
	movq	%rax, %rdi
	call	_ZNSt6vectorIiSaIiEED1Ev
	leaq	-1216(%rbp), %rdx
	leaq	-1120(%rbp), %rax
	movq	%rdx, %rsi
	movq	%rax, %rdi
.LEHB50:
	call	_ZNSt3mapIiSt6vectorIiSaIiEESt4lessIiESaISt4pairIKiS2_EEEC1ERKS9_
.LEHE50:
	leaq	-1840(%rbp), %rdx
	leaq	-1168(%rbp), %rax
	movq	%rdx, %rsi
	movq	%rax, %rdi
.LEHB51:
	call	_ZNSt3mapIiSt6vectorIiSaIiEESt4lessIiESaISt4pairIKiS2_EEEC1ERKS9_
.LEHE51:
	leaq	-1120(%rbp), %rdx
	leaq	-1168(%rbp), %rcx
	leaq	-1072(%rbp), %rax
	movq	%rcx, %rsi
	movq	%rax, %rdi
.LEHB52:
	call	_ZN10EvaluationC1ESt3mapIiSt6vectorIiSaIiEESt4lessIiESaISt4pairIKiS3_EEESA_@PLT
.LEHE52:
	leaq	-1168(%rbp), %rax
	movq	%rax, %rdi
	call	_ZNSt3mapIiSt6vectorIiSaIiEESt4lessIiESaISt4pairIKiS2_EEED1Ev
	leaq	-1120(%rbp), %rax
	movq	%rax, %rdi
	call	_ZNSt3mapIiSt6vectorIiSaIiEESt4lessIiESaISt4pairIKiS2_EEED1Ev
	leaq	-1072(%rbp), %rax
	movq	%rax, %rdi
.LEHB53:
	call	_ZN10Evaluation26compute_evaluation_resultsEv@PLT
	leaq	-1120(%rbp), %rax
	leaq	-1072(%rbp), %rdx
	movq	%rdx, %rsi
	movq	%rax, %rdi
	call	_ZN10Evaluation17get_result_valuesB5cxx11Ev@PLT
.LEHE53:
	leaq	-1168(%rbp), %rax
	movq	%rax, %rdi
	call	_ZNSaIcEC1Ev@PLT
	leaq	-1168(%rbp), %rdx
	leaq	-384(%rbp), %rax
	leaq	.LC7(%rip), %rsi
	movq	%rax, %rdi
.LEHB54:
	call	_ZNSt7__cxx1112basic_stringIcSt11char_traitsIcESaIcEEC1EPKcRKS3_@PLT
.LEHE54:
	movl	-2660(%rbp), %eax
	cltq
	movq	-2792(%rbp), %rdx
	addq	$32, %rdx
	movq	%rax, %rsi
	movq	%rdx, %rdi
	call	_ZNSt6vectorIP11GraphRecsysSaIS1_EEixEm
	movq	(%rax), %rax
	leaq	32(%rax), %rdx
	leaq	-1936(%rbp), %rax
	movq	%rdx, %rsi
	movq	%rax, %rdi
.LEHB55:
	call	_ZNSt3mapINSt7__cxx1112basic_stringIcSt11char_traitsIcESaIcEEES_IiS_IS5_S_IS5_dSt4lessIS5_ESaISt4pairIKS5_dEEES7_SaIS8_IS9_SC_EEES6_IiESaIS8_IKiSF_EEES7_SaIS8_IS9_SK_EEEixERS9_
	movq	%rax, %rdx
	leaq	-2772(%rbp), %rax
	movq	%rax, %rsi
	movq	%rdx, %rdi
	call	_ZNSt3mapIiS_INSt7__cxx1112basic_stringIcSt11char_traitsIcESaIcEEES_IS5_dSt4lessIS5_ESaISt4pairIKS5_dEEES7_SaIS8_IS9_SC_EEES6_IiESaIS8_IKiSF_EEEixERSH_
	movq	%rax, %rdx
	leaq	-384(%rbp), %rax
	movq	%rax, %rsi
	movq	%rdx, %rdi
	call	_ZNSt3mapINSt7__cxx1112basic_stringIcSt11char_traitsIcESaIcEEES_IS5_dSt4lessIS5_ESaISt4pairIKS5_dEEES7_SaIS8_IS9_SC_EEEixEOS5_
.LEHE55:
	movq	%rax, %rdx
	leaq	-1120(%rbp), %rax
	movq	%rax, %rsi
	movq	%rdx, %rdi
	call	_ZNSt3mapINSt7__cxx1112basic_stringIcSt11char_traitsIcESaIcEEEdSt4lessIS5_ESaISt4pairIKS5_dEEEaSEOSC_
	leaq	-384(%rbp), %rax
	movq	%rax, %rdi
	call	_ZNSt7__cxx1112basic_stringIcSt11char_traitsIcESaIcEED1Ev@PLT
	leaq	-1168(%rbp), %rax
	movq	%rax, %rdi
	call	_ZNSaIcED1Ev@PLT
	leaq	-1120(%rbp), %rax
	movq	%rax, %rdi
	call	_ZNSt3mapINSt7__cxx1112basic_stringIcSt11char_traitsIcESaIcEEEdSt4lessIS5_ESaISt4pairIKS5_dEEED1Ev
	leaq	-1120(%rbp), %rax
	leaq	-1072(%rbp), %rdx
	movq	%rdx, %rsi
	movq	%rax, %rdi
.LEHB56:
	call	_ZN10Evaluation18get_result_weightsB5cxx11Ev@PLT
.LEHE56:
	leaq	-1168(%rbp), %rax
	movq	%rax, %rdi
	call	_ZNSaIcEC1Ev@PLT
	leaq	-1168(%rbp), %rdx
	leaq	-384(%rbp), %rax
	leaq	.LC8(%rip), %rsi
	movq	%rax, %rdi
.LEHB57:
	call	_ZNSt7__cxx1112basic_stringIcSt11char_traitsIcESaIcEEC1EPKcRKS3_@PLT
.LEHE57:
	movl	-2660(%rbp), %eax
	cltq
	movq	-2792(%rbp), %rdx
	addq	$32, %rdx
	movq	%rax, %rsi
	movq	%rdx, %rdi
	call	_ZNSt6vectorIP11GraphRecsysSaIS1_EEixEm
	movq	(%rax), %rax
	leaq	32(%rax), %rdx
	leaq	-1936(%rbp), %rax
	movq	%rdx, %rsi
	movq	%rax, %rdi
.LEHB58:
	call	_ZNSt3mapINSt7__cxx1112basic_stringIcSt11char_traitsIcESaIcEEES_IiS_IS5_S_IS5_dSt4lessIS5_ESaISt4pairIKS5_dEEES7_SaIS8_IS9_SC_EEES6_IiESaIS8_IKiSF_EEES7_SaIS8_IS9_SK_EEEixERS9_
	movq	%rax, %rdx
	leaq	-2772(%rbp), %rax
	movq	%rax, %rsi
	movq	%rdx, %rdi
	call	_ZNSt3mapIiS_INSt7__cxx1112basic_stringIcSt11char_traitsIcESaIcEEES_IS5_dSt4lessIS5_ESaISt4pairIKS5_dEEES7_SaIS8_IS9_SC_EEES6_IiESaIS8_IKiSF_EEEixERSH_
	movq	%rax, %rdx
	leaq	-384(%rbp), %rax
	movq	%rax, %rsi
	movq	%rdx, %rdi
	call	_ZNSt3mapINSt7__cxx1112basic_stringIcSt11char_traitsIcESaIcEEES_IS5_dSt4lessIS5_ESaISt4pairIKS5_dEEES7_SaIS8_IS9_SC_EEEixEOS5_
.LEHE58:
	movq	%rax, %rdx
	leaq	-1120(%rbp), %rax
	movq	%rax, %rsi
	movq	%rdx, %rdi
	call	_ZNSt3mapINSt7__cxx1112basic_stringIcSt11char_traitsIcESaIcEEEdSt4lessIS5_ESaISt4pairIKS5_dEEEaSEOSC_
	leaq	-384(%rbp), %rax
	movq	%rax, %rdi
	call	_ZNSt7__cxx1112basic_stringIcSt11char_traitsIcESaIcEED1Ev@PLT
	leaq	-1168(%rbp), %rax
	movq	%rax, %rdi
	call	_ZNSaIcED1Ev@PLT
	leaq	-1120(%rbp), %rax
	movq	%rax, %rdi
	call	_ZNSt3mapINSt7__cxx1112basic_stringIcSt11char_traitsIcESaIcEEEdSt4lessIS5_ESaISt4pairIKS5_dEEED1Ev
	movl	-2660(%rbp), %eax
	cltq
	movq	-2792(%rbp), %rdx
	addq	$32, %rdx
	movq	%rax, %rsi
	movq	%rdx, %rdi
	call	_ZNSt6vectorIP11GraphRecsysSaIS1_EEixEm
	movq	(%rax), %rbx
	leaq	-736(%rbp), %rdx
	leaq	-384(%rbp), %rax
	movq	%rdx, %rsi
	movq	%rax, %rdi
.LEHB59:
	call	_ZN11Global_infoC1ERKS_
.LEHE59:
	leaq	-2384(%rbp), %rdx
	leaq	-1120(%rbp), %rax
	movq	%rdx, %rsi
	movq	%rax, %rdi
.LEHB60:
	call	_ZNSt6vectorIS_IdSaIdEESaIS1_EEC1ERKS3_
.LEHE60:
	leaq	-2352(%rbp), %rdx
	leaq	-1168(%rbp), %rax
	movq	%rdx, %rsi
	movq	%rax, %rdi
.LEHB61:
	call	_ZNSt6vectorIS_IdSaIdEESaIS1_EEC1ERKS3_
.LEHE61:
	leaq	-384(%rbp), %rcx
	leaq	-1120(%rbp), %rdx
	leaq	-1168(%rbp), %rax
	movq	%rax, %rsi
	movq	%rbx, %rdi
.LEHB62:
	call	_ZN11GraphRecsys13update_recsysESt6vectorIS0_IdSaIdEESaIS2_EES4_11Global_info@PLT
.LEHE62:
	leaq	-1168(%rbp), %rax
	movq	%rax, %rdi
	call	_ZNSt6vectorIS_IdSaIdEESaIS1_EED1Ev
	leaq	-1120(%rbp), %rax
	movq	%rax, %rdi
	call	_ZNSt6vectorIS_IdSaIdEESaIS1_EED1Ev
	leaq	-384(%rbp), %rax
	movq	%rax, %rdi
	call	_ZN11Global_infoD1Ev
	leaq	-1072(%rbp), %rax
	movq	%rax, %rdi
	call	_ZN10EvaluationD1Ev@PLT
	leaq	-1216(%rbp), %rax
	movq	%rax, %rdi
	call	_ZNSt3mapIiSt6vectorIiSaIiEESt4lessIiESaISt4pairIKiS2_EEED1Ev
	leaq	-2064(%rbp), %rax
	movq	%rax, %rdi
	call	_ZNSt6vectorIiSaIiEED1Ev
	addl	$1, -2660(%rbp)
	jmp	.L180
.L177:
	leaq	-2192(%rbp), %rdx
	leaq	-2448(%rbp), %rax
	movq	%rdx, %rsi
	movq	%rax, %rdi
.LEHB63:
	call	_ZNSt6vectorIdSaIdEEaSERKS1_
	leaq	-1600(%rbp), %rdx
	leaq	-1984(%rbp), %rax
	movq	%rdx, %rsi
	movq	%rax, %rdi
	call	_ZNSt3mapIiiSt4lessIiESaISt4pairIKiiEEEaSERKS6_
	leaq	-2512(%rbp), %rdx
	leaq	-2416(%rbp), %rax
	movq	%rdx, %rsi
	movq	%rax, %rdi
	call	_ZNSt6vectorIiSaIiEEaSERKS1_
.LEHE63:
	leaq	-1120(%rbp), %rax
	movq	%rax, %rdi
	call	_ZNSt6vectorIiSaIiEEC1Ev
	leaq	-1792(%rbp), %rax
	movq	%rax, %rdi
	call	_ZNSt3mapIiSt6vectorIiSaIiEESt4lessIiESaISt4pairIKiS2_EEE5beginEv
	movq	%rax, -2600(%rbp)
.L184:
	leaq	-1792(%rbp), %rax
	movq	%rax, %rdi
	call	_ZNSt3mapIiSt6vectorIiSaIiEESt4lessIiESaISt4pairIKiS2_EEE3endEv
	movq	%rax, -1072(%rbp)
	leaq	-1072(%rbp), %rdx
	leaq	-2600(%rbp), %rax
	movq	%rdx, %rsi
	movq	%rax, %rdi
	call	_ZStneRKSt17_Rb_tree_iteratorISt4pairIKiSt6vectorIiSaIiEEEES8_
	testb	%al, %al
	je	.L181
	leaq	-2600(%rbp), %rax
	movq	%rax, %rdi
	call	_ZNKSt17_Rb_tree_iteratorISt4pairIKiSt6vectorIiSaIiEEEEptEv
	movl	(%rax), %eax
	movl	%eax, -2608(%rbp)
	leaq	-2032(%rbp), %rax
	movq	%rax, %rdi
	call	_ZNSt3mapIiSt6vectorIiSaIiEESt4lessIiESaISt4pairIKiS2_EEE3endEv
	movq	%rax, -2064(%rbp)
	leaq	-2608(%rbp), %rdx
	leaq	-2032(%rbp), %rax
	movq	%rdx, %rsi
	movq	%rax, %rdi
.LEHB64:
	call	_ZNSt3mapIiSt6vectorIiSaIiEESt4lessIiESaISt4pairIKiS2_EEE4findERS6_
	movq	%rax, -2592(%rbp)
	leaq	-2064(%rbp), %rdx
	leaq	-2592(%rbp), %rax
	movq	%rdx, %rsi
	movq	%rax, %rdi
	call	_ZStneRKSt17_Rb_tree_iteratorISt4pairIKiSt6vectorIiSaIiEEEES8_
	testb	%al, %al
	je	.L182
	leaq	-2608(%rbp), %rdx
	leaq	-2032(%rbp), %rax
	movq	%rdx, %rsi
	movq	%rax, %rdi
	call	_ZNSt3mapIiSt6vectorIiSaIiEESt4lessIiESaISt4pairIKiS2_EEEixERS6_
	movq	%rax, %r12
	leaq	-2608(%rbp), %rdx
	leaq	-2032(%rbp), %rax
	movq	%rdx, %rsi
	movq	%rax, %rdi
	call	_ZNSt3mapIiSt6vectorIiSaIiEESt4lessIiESaISt4pairIKiS2_EEEixERS6_
	movq	%rax, %rdi
	call	_ZNKSt6vectorIiSaIiEE4sizeEv
	movq	%rax, %rbx
	leaq	-2608(%rbp), %rdx
	leaq	-1792(%rbp), %rax
	movq	%rdx, %rsi
	movq	%rax, %rdi
	call	_ZNSt3mapIiSt6vectorIiSaIiEESt4lessIiESaISt4pairIKiS2_EEEixERS6_
	movq	%rax, %rdi
	call	_ZNSt6vectorIiSaIiEE3endEv
	movq	%rax, %r13
	leaq	-2608(%rbp), %rdx
	leaq	-1792(%rbp), %rax
	movq	%rdx, %rsi
	movq	%rax, %rdi
	call	_ZNSt3mapIiSt6vectorIiSaIiEESt4lessIiESaISt4pairIKiS2_EEEixERS6_
	movq	%rax, %rdi
	call	_ZNSt6vectorIiSaIiEE5beginEv
	movq	%r13, %rsi
	movq	%rax, %rdi
	call	_ZSt8distanceIN9__gnu_cxx17__normal_iteratorIPiSt6vectorIiSaIiEEEEENSt15iterator_traitsIT_E15difference_typeES8_S8_
	addq	%rbx, %rax
	movq	%rax, %rsi
	movq	%r12, %rdi
	call	_ZNSt6vectorIiSaIiEE7reserveEm
	leaq	-2608(%rbp), %rdx
	leaq	-2032(%rbp), %rax
	movq	%rdx, %rsi
	movq	%rax, %rdi
	call	_ZNSt3mapIiSt6vectorIiSaIiEESt4lessIiESaISt4pairIKiS2_EEEixERS6_
	movq	%rax, %rbx
	leaq	-2608(%rbp), %rdx
	leaq	-1792(%rbp), %rax
	movq	%rdx, %rsi
	movq	%rax, %rdi
	call	_ZNSt3mapIiSt6vectorIiSaIiEESt4lessIiESaISt4pairIKiS2_EEEixERS6_
	movq	%rax, %rdi
	call	_ZNSt6vectorIiSaIiEE3endEv
	movq	%rax, %r13
	leaq	-2608(%rbp), %rdx
	leaq	-1792(%rbp), %rax
	movq	%rdx, %rsi
	movq	%rax, %rdi
	call	_ZNSt3mapIiSt6vectorIiSaIiEESt4lessIiESaISt4pairIKiS2_EEEixERS6_
	movq	%rax, %rdi
	call	_ZNSt6vectorIiSaIiEE5beginEv
	movq	%rax, %r12
	leaq	-2608(%rbp), %rdx
	leaq	-2032(%rbp), %rax
	movq	%rdx, %rsi
	movq	%rax, %rdi
	call	_ZNSt3mapIiSt6vectorIiSaIiEESt4lessIiESaISt4pairIKiS2_EEEixERS6_
	movq	%rax, %rdi
	call	_ZNSt6vectorIiSaIiEE3endEv
	movq	%rax, -1216(%rbp)
	leaq	-1216(%rbp), %rdx
	leaq	-1168(%rbp), %rax
	movq	%rdx, %rsi
	movq	%rax, %rdi
	call	_ZN9__gnu_cxx17__normal_iteratorIPKiSt6vectorIiSaIiEEEC1IPiEERKNS0_IT_NS_11__enable_ifIXsrSt10__are_sameIS9_S8_E7__valueES5_E6__typeEEE
	movq	-1168(%rbp), %rax
	movq	%r13, %rcx
	movq	%r12, %rdx
	movq	%rax, %rsi
	movq	%rbx, %rdi
	call	_ZNSt6vectorIiSaIiEE6insertIN9__gnu_cxx17__normal_iteratorIPiS1_EEvEES6_NS4_IPKiS1_EET_SA_
	leaq	-2608(%rbp), %rdx
	leaq	-2032(%rbp), %rax
	movq	%rdx, %rsi
	movq	%rax, %rdi
	call	_ZNSt3mapIiSt6vectorIiSaIiEESt4lessIiESaISt4pairIKiS2_EEEixERS6_
	movq	%rax, %rdi
	call	_ZNSt6vectorIiSaIiEE3endEv
	movq	%rax, %rbx
	leaq	-2608(%rbp), %rdx
	leaq	-2032(%rbp), %rax
	movq	%rdx, %rsi
	movq	%rax, %rdi
	call	_ZNSt3mapIiSt6vectorIiSaIiEESt4lessIiESaISt4pairIKiS2_EEEixERS6_
	movq	%rax, %rdi
	call	_ZNSt6vectorIiSaIiEE5beginEv
	movq	%rax, %rcx
	leaq	-1072(%rbp), %rax
	movq	%rbx, %rdx
	movq	%rcx, %rsi
	movq	%rax, %rdi
	call	_ZNSt3setIiSt4lessIiESaIiEEC1IN9__gnu_cxx17__normal_iteratorIPiSt6vectorIiS2_EEEEET_SB_
.LEHE64:
	leaq	-2608(%rbp), %rdx
	leaq	-2032(%rbp), %rax
	movq	%rdx, %rsi
	movq	%rax, %rdi
.LEHB65:
	call	_ZNSt3mapIiSt6vectorIiSaIiEESt4lessIiESaISt4pairIKiS2_EEEixERS6_
	movq	%rax, %rbx
	leaq	-1072(%rbp), %rax
	movq	%rax, %rdi
	call	_ZNKSt3setIiSt4lessIiESaIiEE3endEv
	movq	%rax, %r12
	leaq	-1072(%rbp), %rax
	movq	%rax, %rdi
	call	_ZNKSt3setIiSt4lessIiESaIiEE5beginEv
	movq	%r12, %rdx
	movq	%rax, %rsi
	movq	%rbx, %rdi
	call	_ZNSt6vectorIiSaIiEE6assignISt23_Rb_tree_const_iteratorIiEvEEvT_S5_
.LEHE65:
	leaq	-1072(%rbp), %rax
	movq	%rax, %rdi
	call	_ZNSt3setIiSt4lessIiESaIiEED1Ev
	jmp	.L183
.L182:
	leaq	-2608(%rbp), %rdx
	leaq	-1792(%rbp), %rax
	movq	%rdx, %rsi
	movq	%rax, %rdi
.LEHB66:
	call	_ZNSt3mapIiSt6vectorIiSaIiEESt4lessIiESaISt4pairIKiS2_EEEixERS6_
	movq	%rax, %rbx
	leaq	-2608(%rbp), %rdx
	leaq	-2032(%rbp), %rax
	movq	%rdx, %rsi
	movq	%rax, %rdi
	call	_ZNSt3mapIiSt6vectorIiSaIiEESt4lessIiESaISt4pairIKiS2_EEEixERS6_
	movq	%rbx, %rsi
	movq	%rax, %rdi
	call	_ZNSt6vectorIiSaIiEEaSERKS1_
.LEHE66:
.L183:
	leaq	-2600(%rbp), %rax
	movq	%rax, %rdi
	call	_ZNSt17_Rb_tree_iteratorISt4pairIKiSt6vectorIiSaIiEEEEppEv
	jmp	.L184
.L181:
	movl	-2772(%rbp), %eax
	addl	$1, %eax
	movl	%eax, -2772(%rbp)
	movq	$0, -1072(%rbp)
	movq	$0, -1064(%rbp)
	movq	$0, -1056(%rbp)
	leaq	-1072(%rbp), %rax
	movq	%rax, %rdi
	call	_ZNSt6vectorIS_IdSaIdEESaIS1_EEC1Ev
	leaq	-2128(%rbp), %rdx
	leaq	-1072(%rbp), %rax
	movq	%rdx, %rsi
	movq	%rax, %rdi
	call	_ZNSt6vectorIS_IdSaIdEESaIS1_EE4swapERS3_
	leaq	-1072(%rbp), %rax
	movq	%rax, %rdi
	call	_ZNSt6vectorIS_IdSaIdEESaIS1_EED1Ev
	movq	$0, -1072(%rbp)
	movq	$0, -1064(%rbp)
	movq	$0, -1056(%rbp)
	leaq	-1072(%rbp), %rax
	movq	%rax, %rdi
	call	_ZNSt6vectorIS_IdSaIdEESaIS1_EEC1Ev
	leaq	-2096(%rbp), %rdx
	leaq	-1072(%rbp), %rax
	movq	%rdx, %rsi
	movq	%rax, %rdi
	call	_ZNSt6vectorIS_IdSaIdEESaIS1_EE4swapERS3_
	leaq	-1072(%rbp), %rax
	movq	%rax, %rdi
	call	_ZNSt6vectorIS_IdSaIdEESaIS1_EED1Ev
	movq	$0, -1072(%rbp)
	movq	$0, -1064(%rbp)
	movq	$0, -1056(%rbp)
	leaq	-1072(%rbp), %rax
	movq	%rax, %rdi
	call	_ZNSt6vectorIS_IdSaIdEESaIS1_EEC1Ev
	leaq	-2352(%rbp), %rdx
	leaq	-1072(%rbp), %rax
	movq	%rdx, %rsi
	movq	%rax, %rdi
	call	_ZNSt6vectorIS_IdSaIdEESaIS1_EE4swapERS3_
	leaq	-1072(%rbp), %rax
	movq	%rax, %rdi
	call	_ZNSt6vectorIS_IdSaIdEESaIS1_EED1Ev
	movl	$0, -1064(%rbp)
	movq	$0, -1056(%rbp)
	movq	$0, -1048(%rbp)
	movq	$0, -1040(%rbp)
	movq	$0, -1032(%rbp)
	leaq	-1072(%rbp), %rax
	movq	%rax, %rdi
	call	_ZNSt3mapIiSt6vectorIiSaIiEESt4lessIiESaISt4pairIKiS2_EEEC1Ev
	leaq	-1840(%rbp), %rdx
	leaq	-1072(%rbp), %rax
	movq	%rdx, %rsi
	movq	%rax, %rdi
	call	_ZNSt3mapIiSt6vectorIiSaIiEESt4lessIiESaISt4pairIKiS2_EEE4swapERS9_
	leaq	-1072(%rbp), %rax
	movq	%rax, %rdi
	call	_ZNSt3mapIiSt6vectorIiSaIiEESt4lessIiESaISt4pairIKiS2_EEED1Ev
	movl	$0, -2720(%rbp)
	movq	$0, -1072(%rbp)
	movq	$0, -1064(%rbp)
	movq	$0, -1056(%rbp)
	leaq	-1072(%rbp), %rax
	movq	%rax, %rdi
	call	_ZNSt6vectorIiSaIiEEC1Ev
	leaq	-2320(%rbp), %rdx
	leaq	-1072(%rbp), %rax
	movq	%rdx, %rsi
	movq	%rax, %rdi
	call	_ZNSt6vectorIiSaIiEE4swapERS1_
	leaq	-1072(%rbp), %rax
	movq	%rax, %rdi
	call	_ZNSt6vectorIiSaIiEED1Ev
	movq	$0, -1072(%rbp)
	movq	$0, -1064(%rbp)
	movq	$0, -1056(%rbp)
	leaq	-1072(%rbp), %rax
	movq	%rax, %rdi
	call	_ZNSt6vectorIiSaIiEEC1Ev
	leaq	-2288(%rbp), %rdx
	leaq	-1072(%rbp), %rax
	movq	%rdx, %rsi
	movq	%rax, %rdi
	call	_ZNSt6vectorIiSaIiEE4swapERS1_
	leaq	-1072(%rbp), %rax
	movq	%rax, %rdi
	call	_ZNSt6vectorIiSaIiEED1Ev
	movl	$0, -1064(%rbp)
	movq	$0, -1056(%rbp)
	movq	$0, -1048(%rbp)
	movq	$0, -1040(%rbp)
	movq	$0, -1032(%rbp)
	leaq	-1072(%rbp), %rax
	movq	%rax, %rdi
	call	_ZNSt3mapIiSt6vectorIiSaIiEESt4lessIiESaISt4pairIKiS2_EEEC1Ev
	leaq	-1792(%rbp), %rdx
	leaq	-1072(%rbp), %rax
	movq	%rdx, %rsi
	movq	%rax, %rdi
	call	_ZNSt3mapIiSt6vectorIiSaIiEESt4lessIiESaISt4pairIKiS2_EEE4swapERS9_
	leaq	-1072(%rbp), %rax
	movq	%rax, %rdi
	call	_ZNSt3mapIiSt6vectorIiSaIiEESt4lessIiESaISt4pairIKiS2_EEED1Ev
	leaq	-1120(%rbp), %rax
	movq	%rax, %rdi
	call	_ZNSt6vectorIiSaIiEED1Ev
	leaq	-736(%rbp), %rax
	movq	%rax, %rdi
	call	_ZN11Global_infoD1Ev
	leaq	-2096(%rbp), %rax
	movq	%rax, %rdi
	call	_ZNSt6vectorIS_IdSaIdEESaIS1_EED1Ev
	leaq	-2128(%rbp), %rax
	movq	%rax, %rdi
	call	_ZNSt6vectorIS_IdSaIdEESaIS1_EED1Ev
	leaq	-2160(%rbp), %rax
	movq	%rax, %rdi
	call	_ZNSt6vectorIdSaIdEED1Ev
	leaq	-2192(%rbp), %rax
	movq	%rax, %rdi
	call	_ZNSt6vectorIdSaIdEED1Ev
	leaq	-1264(%rbp), %rax
	movq	%rax, %rdi
	call	_ZNSt3mapIiSt6vectorIiSaIiEESt4lessIiESaISt4pairIKiS2_EEED1Ev
	leaq	-1312(%rbp), %rax
	movq	%rax, %rdi
	call	_ZNSt3mapIiSt6vectorIiSaIiEESt4lessIiESaISt4pairIKiS2_EEED1Ev
	leaq	-2224(%rbp), %rax
	movq	%rax, %rdi
	call	_ZNSt6vectorIS_IdSaIdEESaIS1_EED1Ev
	leaq	-1360(%rbp), %rax
	movq	%rax, %rdi
	call	_ZNSt3mapIiiSt4lessIiESaISt4pairIKiiEEED1Ev
	leaq	-1408(%rbp), %rax
	movq	%rax, %rdi
	call	_ZNSt3mapIiiSt4lessIiESaISt4pairIKiiEEED1Ev
	leaq	-1456(%rbp), %rax
	movq	%rax, %rdi
	call	_ZNSt3mapIiiSt4lessIiESaISt4pairIKiiEEED1Ev
	leaq	-1504(%rbp), %rax
	movq	%rax, %rdi
	call	_ZNSt3mapIiiSt4lessIiESaISt4pairIKiiEEED1Ev
	leaq	-1552(%rbp), %rax
	movq	%rax, %rdi
	call	_ZNSt3mapIiiSt4lessIiESaISt4pairIKiiEEED1Ev
	leaq	-1600(%rbp), %rax
	movq	%rax, %rdi
	call	_ZNSt3mapIiiSt4lessIiESaISt4pairIKiiEEED1Ev
	leaq	-1648(%rbp), %rax
	movq	%rax, %rdi
	call	_ZNSt3setIiSt4lessIiESaIiEED1Ev
	leaq	-1696(%rbp), %rax
	movq	%rax, %rdi
	call	_ZNSt3setIiSt4lessIiESaIiEED1Ev
	leaq	-1744(%rbp), %rax
	movq	%rax, %rdi
	call	_ZNSt3setIiSt4lessIiESaIiEED1Ev
	leaq	-1792(%rbp), %rax
	movq	%rax, %rdi
	call	_ZNSt3mapIiSt6vectorIiSaIiEESt4lessIiESaISt4pairIKiS2_EEED1Ev
	leaq	-1840(%rbp), %rax
	movq	%rax, %rdi
	call	_ZNSt3mapIiSt6vectorIiSaIiEESt4lessIiESaISt4pairIKiS2_EEED1Ev
	leaq	-2256(%rbp), %rax
	movq	%rax, %rdi
	call	_ZNSt6vectorIiSaIiEED1Ev
	leaq	-2288(%rbp), %rax
	movq	%rax, %rdi
	call	_ZNSt6vectorIiSaIiEED1Ev
	leaq	-2320(%rbp), %rax
	movq	%rax, %rdi
	call	_ZNSt6vectorIiSaIiEED1Ev
	leaq	-2352(%rbp), %rax
	movq	%rax, %rdi
	call	_ZNSt6vectorIS_IdSaIdEESaIS1_EED1Ev
	jmp	.L118
.L120:
	leaq	-1120(%rbp), %rax
	movq	%rax, %rdi
.LEHB67:
	call	_Z22evaluation_metric_listB5cxx11v@PLT
.LEHE67:
	movl	$0, -2656(%rbp)
.L193:
	movl	-2656(%rbp), %eax
	movslq	%eax, %rbx
	movq	-2792(%rbp), %rax
	addq	$32, %rax
	movq	%rax, %rdi
	call	_ZNKSt6vectorIP11GraphRecsysSaIS1_EE4sizeEv
	cmpq	%rax, %rbx
	setb	%al
	testb	%al, %al
	je	.L185
	movl	-2656(%rbp), %eax
	cltq
	movq	-2792(%rbp), %rdx
	addq	$32, %rdx
	movq	%rax, %rsi
	movq	%rdx, %rdi
	call	_ZNSt6vectorIP11GraphRecsysSaIS1_EEixEm
	movq	(%rax), %rax
	leaq	32(%rax), %rdx
	leaq	-800(%rbp), %rax
	movq	%rdx, %rsi
	movq	%rax, %rdi
.LEHB68:
	call	_ZNSt7__cxx1112basic_stringIcSt11char_traitsIcESaIcEEC1ERKS4_@PLT
.LEHE68:
	movl	$0, -2652(%rbp)
.L192:
	movl	-2652(%rbp), %eax
	movslq	%eax, %rbx
	leaq	-1120(%rbp), %rax
	movq	%rax, %rdi
	call	_ZNKSt6vectorINSt7__cxx1112basic_stringIcSt11char_traitsIcESaIcEEESaIS5_EE4sizeEv
	cmpq	%rax, %rbx
	setb	%al
	testb	%al, %al
	je	.L186
	pxor	%xmm0, %xmm0
	movsd	%xmm0, -2584(%rbp)
	pxor	%xmm0, %xmm0
	movsd	%xmm0, -2576(%rbp)
	movl	-2652(%rbp), %eax
	movslq	%eax, %rdx
	leaq	-1120(%rbp), %rax
	movq	%rdx, %rsi
	movq	%rax, %rdi
	call	_ZNSt6vectorINSt7__cxx1112basic_stringIcSt11char_traitsIcESaIcEEESaIS5_EEixEm
	movq	%rax, %rdx
	leaq	-768(%rbp), %rax
	movq	%rdx, %rsi
	movq	%rax, %rdi
.LEHB69:
	call	_ZNSt7__cxx1112basic_stringIcSt11char_traitsIcESaIcEEC1ERKS4_@PLT
.LEHE69:
	leaq	-800(%rbp), %rdx
	leaq	-1936(%rbp), %rax
	movq	%rdx, %rsi
	movq	%rax, %rdi
.LEHB70:
	call	_ZNSt3mapINSt7__cxx1112basic_stringIcSt11char_traitsIcESaIcEEES_IiS_IS5_S_IS5_dSt4lessIS5_ESaISt4pairIKS5_dEEES7_SaIS8_IS9_SC_EEES6_IiESaIS8_IKiSF_EEES7_SaIS8_IS9_SK_EEEixERS9_
	movq	%rax, %rdi
	call	_ZNSt3mapIiS_INSt7__cxx1112basic_stringIcSt11char_traitsIcESaIcEEES_IS5_dSt4lessIS5_ESaISt4pairIKS5_dEEES7_SaIS8_IS9_SC_EEES6_IiESaIS8_IKiSF_EEE5beginEv
	movq	%rax, -1168(%rbp)
.L188:
	leaq	-800(%rbp), %rdx
	leaq	-1936(%rbp), %rax
	movq	%rdx, %rsi
	movq	%rax, %rdi
	call	_ZNSt3mapINSt7__cxx1112basic_stringIcSt11char_traitsIcESaIcEEES_IiS_IS5_S_IS5_dSt4lessIS5_ESaISt4pairIKS5_dEEES7_SaIS8_IS9_SC_EEES6_IiESaIS8_IKiSF_EEES7_SaIS8_IS9_SK_EEEixERS9_
.LEHE70:
	movq	%rax, %rdi
	call	_ZNSt3mapIiS_INSt7__cxx1112basic_stringIcSt11char_traitsIcESaIcEEES_IS5_dSt4lessIS5_ESaISt4pairIKS5_dEEES7_SaIS8_IS9_SC_EEES6_IiESaIS8_IKiSF_EEE3endEv
	movq	%rax, -1072(%rbp)
	leaq	-1072(%rbp), %rdx
	leaq	-1168(%rbp), %rax
	movq	%rdx, %rsi
	movq	%rax, %rdi
	call	_ZStneRKSt17_Rb_tree_iteratorISt4pairIKiSt3mapINSt7__cxx1112basic_stringIcSt11char_traitsIcESaIcEEES2_IS8_dSt4lessIS8_ESaIS0_IKS8_dEEESA_SaIS0_ISB_SE_EEEEESL_
	testb	%al, %al
	je	.L187
	leaq	-1216(%rbp), %rax
	movq	%rax, %rdi
	call	_ZNSaIcEC1Ev@PLT
	leaq	-1216(%rbp), %rdx
	leaq	-736(%rbp), %rax
	leaq	.LC7(%rip), %rsi
	movq	%rax, %rdi
.LEHB71:
	call	_ZNSt7__cxx1112basic_stringIcSt11char_traitsIcESaIcEEC1EPKcRKS3_@PLT
.LEHE71:
	leaq	-1168(%rbp), %rax
	movq	%rax, %rdi
	call	_ZNKSt17_Rb_tree_iteratorISt4pairIKiSt3mapINSt7__cxx1112basic_stringIcSt11char_traitsIcESaIcEEES2_IS8_dSt4lessIS8_ESaIS0_IKS8_dEEESA_SaIS0_ISB_SE_EEEEEptEv
	movq	%rax, %rbx
	leaq	-800(%rbp), %rdx
	leaq	-1936(%rbp), %rax
	movq	%rdx, %rsi
	movq	%rax, %rdi
.LEHB72:
	call	_ZNSt3mapINSt7__cxx1112basic_stringIcSt11char_traitsIcESaIcEEES_IiS_IS5_S_IS5_dSt4lessIS5_ESaISt4pairIKS5_dEEES7_SaIS8_IS9_SC_EEES6_IiESaIS8_IKiSF_EEES7_SaIS8_IS9_SK_EEEixERS9_
	movq	%rbx, %rsi
	movq	%rax, %rdi
	call	_ZNSt3mapIiS_INSt7__cxx1112basic_stringIcSt11char_traitsIcESaIcEEES_IS5_dSt4lessIS5_ESaISt4pairIKS5_dEEES7_SaIS8_IS9_SC_EEES6_IiESaIS8_IKiSF_EEEixERSH_
	movq	%rax, %rdx
	leaq	-736(%rbp), %rax
	movq	%rax, %rsi
	movq	%rdx, %rdi
	call	_ZNSt3mapINSt7__cxx1112basic_stringIcSt11char_traitsIcESaIcEEES_IS5_dSt4lessIS5_ESaISt4pairIKS5_dEEES7_SaIS8_IS9_SC_EEEixEOS5_
	movq	%rax, %rdx
	leaq	-768(%rbp), %rax
	movq	%rax, %rsi
	movq	%rdx, %rdi
	call	_ZNSt3mapINSt7__cxx1112basic_stringIcSt11char_traitsIcESaIcEEEdSt4lessIS5_ESaISt4pairIKS5_dEEEixERS9_
.LEHE72:
	movsd	(%rax), %xmm4
	movsd	%xmm4, -2800(%rbp)
	leaq	-1072(%rbp), %rax
	movq	%rax, %rdi
	call	_ZNSaIcEC1Ev@PLT
	leaq	-1072(%rbp), %rdx
	leaq	-384(%rbp), %rax
	leaq	.LC8(%rip), %rsi
	movq	%rax, %rdi
.LEHB73:
	call	_ZNSt7__cxx1112basic_stringIcSt11char_traitsIcESaIcEEC1EPKcRKS3_@PLT
.LEHE73:
	leaq	-1168(%rbp), %rax
	movq	%rax, %rdi
	call	_ZNKSt17_Rb_tree_iteratorISt4pairIKiSt3mapINSt7__cxx1112basic_stringIcSt11char_traitsIcESaIcEEES2_IS8_dSt4lessIS8_ESaIS0_IKS8_dEEESA_SaIS0_ISB_SE_EEEEEptEv
	movq	%rax, %rbx
	leaq	-800(%rbp), %rdx
	leaq	-1936(%rbp), %rax
	movq	%rdx, %rsi
	movq	%rax, %rdi
.LEHB74:
	call	_ZNSt3mapINSt7__cxx1112basic_stringIcSt11char_traitsIcESaIcEEES_IiS_IS5_S_IS5_dSt4lessIS5_ESaISt4pairIKS5_dEEES7_SaIS8_IS9_SC_EEES6_IiESaIS8_IKiSF_EEES7_SaIS8_IS9_SK_EEEixERS9_
	movq	%rbx, %rsi
	movq	%rax, %rdi
	call	_ZNSt3mapIiS_INSt7__cxx1112basic_stringIcSt11char_traitsIcESaIcEEES_IS5_dSt4lessIS5_ESaISt4pairIKS5_dEEES7_SaIS8_IS9_SC_EEES6_IiESaIS8_IKiSF_EEEixERSH_
	movq	%rax, %rdx
	leaq	-384(%rbp), %rax
	movq	%rax, %rsi
	movq	%rdx, %rdi
	call	_ZNSt3mapINSt7__cxx1112basic_stringIcSt11char_traitsIcESaIcEEES_IS5_dSt4lessIS5_ESaISt4pairIKS5_dEEES7_SaIS8_IS9_SC_EEEixEOS5_
	movq	%rax, %rdx
	leaq	-768(%rbp), %rax
	movq	%rax, %rsi
	movq	%rdx, %rdi
	call	_ZNSt3mapINSt7__cxx1112basic_stringIcSt11char_traitsIcESaIcEEEdSt4lessIS5_ESaISt4pairIKS5_dEEEixERS9_
.LEHE74:
	movsd	(%rax), %xmm0
	mulsd	-2800(%rbp), %xmm0
	movsd	-2584(%rbp), %xmm1
	addsd	%xmm1, %xmm0
	movsd	%xmm0, -2584(%rbp)
	leaq	-384(%rbp), %rax
	movq	%rax, %rdi
	call	_ZNSt7__cxx1112basic_stringIcSt11char_traitsIcESaIcEED1Ev@PLT
	leaq	-1072(%rbp), %rax
	movq	%rax, %rdi
	call	_ZNSaIcED1Ev@PLT
	leaq	-736(%rbp), %rax
	movq	%rax, %rdi
	call	_ZNSt7__cxx1112basic_stringIcSt11char_traitsIcESaIcEED1Ev@PLT
	leaq	-1216(%rbp), %rax
	movq	%rax, %rdi
	call	_ZNSaIcED1Ev@PLT
	leaq	-1072(%rbp), %rax
	movq	%rax, %rdi
	call	_ZNSaIcEC1Ev@PLT
	leaq	-1072(%rbp), %rdx
	leaq	-384(%rbp), %rax
	leaq	.LC8(%rip), %rsi
	movq	%rax, %rdi
.LEHB75:
	call	_ZNSt7__cxx1112basic_stringIcSt11char_traitsIcESaIcEEC1EPKcRKS3_@PLT
.LEHE75:
	leaq	-1168(%rbp), %rax
	movq	%rax, %rdi
	call	_ZNKSt17_Rb_tree_iteratorISt4pairIKiSt3mapINSt7__cxx1112basic_stringIcSt11char_traitsIcESaIcEEES2_IS8_dSt4lessIS8_ESaIS0_IKS8_dEEESA_SaIS0_ISB_SE_EEEEEptEv
	movq	%rax, %rbx
	leaq	-800(%rbp), %rdx
	leaq	-1936(%rbp), %rax
	movq	%rdx, %rsi
	movq	%rax, %rdi
.LEHB76:
	call	_ZNSt3mapINSt7__cxx1112basic_stringIcSt11char_traitsIcESaIcEEES_IiS_IS5_S_IS5_dSt4lessIS5_ESaISt4pairIKS5_dEEES7_SaIS8_IS9_SC_EEES6_IiESaIS8_IKiSF_EEES7_SaIS8_IS9_SK_EEEixERS9_
	movq	%rbx, %rsi
	movq	%rax, %rdi
	call	_ZNSt3mapIiS_INSt7__cxx1112basic_stringIcSt11char_traitsIcESaIcEEES_IS5_dSt4lessIS5_ESaISt4pairIKS5_dEEES7_SaIS8_IS9_SC_EEES6_IiESaIS8_IKiSF_EEEixERSH_
	movq	%rax, %rdx
	leaq	-384(%rbp), %rax
	movq	%rax, %rsi
	movq	%rdx, %rdi
	call	_ZNSt3mapINSt7__cxx1112basic_stringIcSt11char_traitsIcESaIcEEES_IS5_dSt4lessIS5_ESaISt4pairIKS5_dEEES7_SaIS8_IS9_SC_EEEixEOS5_
	movq	%rax, %rdx
	leaq	-768(%rbp), %rax
	movq	%rax, %rsi
	movq	%rdx, %rdi
	call	_ZNSt3mapINSt7__cxx1112basic_stringIcSt11char_traitsIcESaIcEEEdSt4lessIS5_ESaISt4pairIKS5_dEEEixERS9_
.LEHE76:
	movsd	(%rax), %xmm0
	movsd	-2576(%rbp), %xmm1
	addsd	%xmm1, %xmm0
	movsd	%xmm0, -2576(%rbp)
	leaq	-384(%rbp), %rax
	movq	%rax, %rdi
	call	_ZNSt7__cxx1112basic_stringIcSt11char_traitsIcESaIcEED1Ev@PLT
	leaq	-1072(%rbp), %rax
	movq	%rax, %rdi
	call	_ZNSaIcED1Ev@PLT
	leaq	-1168(%rbp), %rax
	movq	%rax, %rdi
	call	_ZNSt17_Rb_tree_iteratorISt4pairIKiSt3mapINSt7__cxx1112basic_stringIcSt11char_traitsIcESaIcEEES2_IS8_dSt4lessIS8_ESaIS0_IKS8_dEEESA_SaIS0_ISB_SE_EEEEEppEv
	jmp	.L188
.L187:
	movsd	-2576(%rbp), %xmm0
	pxor	%xmm1, %xmm1
	comisd	%xmm1, %xmm0
	jbe	.L299
	movsd	-2584(%rbp), %xmm0
	divsd	-2576(%rbp), %xmm0
	movsd	%xmm0, -2800(%rbp)
	jmp	.L191
.L299:
	pxor	%xmm5, %xmm5
	movsd	%xmm5, -2800(%rbp)
.L191:
	movq	-2792(%rbp), %rax
	leaq	104(%rax), %rdx
	leaq	-800(%rbp), %rax
	movq	%rax, %rsi
	movq	%rdx, %rdi
.LEHB77:
	call	_ZNSt3mapINSt7__cxx1112basic_stringIcSt11char_traitsIcESaIcEEES_IS5_dSt4lessIS5_ESaISt4pairIKS5_dEEES7_SaIS8_IS9_SC_EEEixERS9_
	movq	%rax, %rdx
	leaq	-768(%rbp), %rax
	movq	%rax, %rsi
	movq	%rdx, %rdi
	call	_ZNSt3mapINSt7__cxx1112basic_stringIcSt11char_traitsIcESaIcEEEdSt4lessIS5_ESaISt4pairIKS5_dEEEixERS9_
.LEHE77:
	movsd	-2800(%rbp), %xmm6
	movsd	%xmm6, (%rax)
	leaq	-768(%rbp), %rax
	movq	%rax, %rdi
	call	_ZNSt7__cxx1112basic_stringIcSt11char_traitsIcESaIcEED1Ev@PLT
	addl	$1, -2652(%rbp)
	jmp	.L192
.L186:
	leaq	-800(%rbp), %rax
	movq	%rax, %rdi
	call	_ZNSt7__cxx1112basic_stringIcSt11char_traitsIcESaIcEED1Ev@PLT
	addl	$1, -2656(%rbp)
	jmp	.L193
.L185:
	movq	$0, -1072(%rbp)
	movq	$0, -1064(%rbp)
	movq	$0, -1056(%rbp)
	leaq	-1072(%rbp), %rax
	movq	%rax, %rdi
	call	_ZNSt6vectorIiSaIiEEC1Ev
	leaq	-2544(%rbp), %rdx
	leaq	-1072(%rbp), %rax
	movq	%rdx, %rsi
	movq	%rax, %rdi
	call	_ZNSt6vectorIiSaIiEE4swapERS1_
	leaq	-1072(%rbp), %rax
	movq	%rax, %rdi
	call	_ZNSt6vectorIiSaIiEED1Ev
	movq	$0, -1072(%rbp)
	movq	$0, -1064(%rbp)
	movq	$0, -1056(%rbp)
	leaq	-1072(%rbp), %rax
	movq	%rax, %rdi
	call	_ZNSt6vectorIiSaIiEEC1Ev
	leaq	-2512(%rbp), %rdx
	leaq	-1072(%rbp), %rax
	movq	%rdx, %rsi
	movq	%rax, %rdi
	call	_ZNSt6vectorIiSaIiEE4swapERS1_
	leaq	-1072(%rbp), %rax
	movq	%rax, %rdi
	call	_ZNSt6vectorIiSaIiEED1Ev
	movl	$0, -1064(%rbp)
	movq	$0, -1056(%rbp)
	movq	$0, -1048(%rbp)
	movq	$0, -1040(%rbp)
	movq	$0, -1032(%rbp)
	leaq	-1072(%rbp), %rax
	movq	%rax, %rdi
	call	_ZNSt3mapIiSt6vectorIiSaIiEESt4lessIiESaISt4pairIKiS2_EEEC1Ev
	leaq	-2032(%rbp), %rdx
	leaq	-1072(%rbp), %rax
	movq	%rdx, %rsi
	movq	%rax, %rdi
	call	_ZNSt3mapIiSt6vectorIiSaIiEESt4lessIiESaISt4pairIKiS2_EEE4swapERS9_
	leaq	-1072(%rbp), %rax
	movq	%rax, %rdi
	call	_ZNSt3mapIiSt6vectorIiSaIiEESt4lessIiESaISt4pairIKiS2_EEED1Ev
	movl	$0, -1064(%rbp)
	movq	$0, -1056(%rbp)
	movq	$0, -1048(%rbp)
	movq	$0, -1040(%rbp)
	movq	$0, -1032(%rbp)
	leaq	-1072(%rbp), %rax
	movq	%rax, %rdi
	call	_ZNSt3mapINSt7__cxx1112basic_stringIcSt11char_traitsIcESaIcEEES_IiS_IS5_S_IS5_dSt4lessIS5_ESaISt4pairIKS5_dEEES7_SaIS8_IS9_SC_EEES6_IiESaIS8_IKiSF_EEES7_SaIS8_IS9_SK_EEEC1Ev
	leaq	-1936(%rbp), %rdx
	leaq	-1072(%rbp), %rax
	movq	%rdx, %rsi
	movq	%rax, %rdi
	call	_ZNSt3mapINSt7__cxx1112basic_stringIcSt11char_traitsIcESaIcEEES_IiS_IS5_S_IS5_dSt4lessIS5_ESaISt4pairIKS5_dEEES7_SaIS8_IS9_SC_EEES6_IiESaIS8_IKiSF_EEES7_SaIS8_IS9_SK_EEE4swapERSN_
	leaq	-1072(%rbp), %rax
	movq	%rax, %rdi
	call	_ZNSt3mapINSt7__cxx1112basic_stringIcSt11char_traitsIcESaIcEEES_IiS_IS5_S_IS5_dSt4lessIS5_ESaISt4pairIKS5_dEEES7_SaIS8_IS9_SC_EEES6_IiESaIS8_IKiSF_EEES7_SaIS8_IS9_SK_EEED1Ev
	leaq	-1120(%rbp), %rax
	movq	%rax, %rdi
	call	_ZNSt6vectorINSt7__cxx1112basic_stringIcSt11char_traitsIcESaIcEEESaIS5_EED1Ev
	leaq	-2384(%rbp), %rax
	movq	%rax, %rdi
	call	_ZNSt6vectorIS_IdSaIdEESaIS1_EED1Ev
	leaq	-1888(%rbp), %rax
	movq	%rax, %rdi
	call	_ZNSt3mapIiSt6vectorIiSaIiEESt4lessIiESaISt4pairIKiS2_EEED1Ev
	leaq	-1936(%rbp), %rax
	movq	%rax, %rdi
	call	_ZNSt3mapINSt7__cxx1112basic_stringIcSt11char_traitsIcESaIcEEES_IiS_IS5_S_IS5_dSt4lessIS5_ESaISt4pairIKS5_dEEES7_SaIS8_IS9_SC_EEES6_IiESaIS8_IKiSF_EEES7_SaIS8_IS9_SK_EEED1Ev
	leaq	-1984(%rbp), %rax
	movq	%rax, %rdi
	call	_ZNSt3mapIiiSt4lessIiESaISt4pairIKiiEEED1Ev
	leaq	-2416(%rbp), %rax
	movq	%rax, %rdi
	call	_ZNSt6vectorIiSaIiEED1Ev
	leaq	-2032(%rbp), %rax
	movq	%rax, %rdi
	call	_ZNSt3mapIiSt6vectorIiSaIiEESt4lessIiESaISt4pairIKiS2_EEED1Ev
	leaq	-2448(%rbp), %rax
	movq	%rax, %rdi
	call	_ZNSt6vectorIdSaIdEED1Ev
	leaq	-2480(%rbp), %rax
	movq	%rax, %rdi
	call	_ZNSt6vectorIiSaIiEED1Ev
	leaq	-2512(%rbp), %rax
	movq	%rax, %rdi
	call	_ZNSt6vectorIiSaIiEED1Ev
	leaq	-2544(%rbp), %rax
	movq	%rax, %rdi
	call	_ZNSt6vectorIiSaIiEED1Ev
	nop
	movq	-40(%rbp), %rax
	xorq	%fs:40, %rax
	je	.L244
	jmp	.L300
.L246:
	endbr64
	movq	%rax, %rbx
	leaq	-1072(%rbp), %rax
	movq	%rax, %rdi
	call	_ZNSt6vectorIdSaIdEED1Ev
	jmp	.L195
.L253:
	endbr64
	movq	%rax, %rbx
	leaq	-1072(%rbp), %rax
	movq	%rax, %rdi
	call	_ZNSt6vectorIdSaIdEED1Ev
	movq	%rbx, %rax
	jmp	.L197
.L252:
	endbr64
.L197:
	movq	%rax, %rbx
	leaq	-1216(%rbp), %rax
	movq	%rax, %rdi
	call	_ZNSaIdED1Ev
	leaq	-1168(%rbp), %rax
	movq	%rax, %rdi
	call	_ZNSaISt6vectorIdSaIdEEED1Ev
	jmp	.L198
.L256:
	endbr64
	movq	%rax, %rbx
	leaq	-1120(%rbp), %rax
	movq	%rax, %rdi
	call	_ZNSaIdED1Ev
	jmp	.L200
.L257:
	endbr64
	movq	%rax, %rbx
	leaq	-1120(%rbp), %rax
	movq	%rax, %rdi
	call	_ZNSaIdED1Ev
	jmp	.L202
.L259:
	endbr64
	movq	%rax, %rbx
	leaq	-1072(%rbp), %rax
	movq	%rax, %rdi
	call	_ZNSt6vectorIdSaIdEED1Ev
	movq	%rbx, %rax
	jmp	.L204
.L258:
	endbr64
.L204:
	movq	%rax, %rbx
	leaq	-1216(%rbp), %rax
	movq	%rax, %rdi
	call	_ZNSaIdED1Ev
	leaq	-1168(%rbp), %rax
	movq	%rax, %rdi
	call	_ZNSaISt6vectorIdSaIdEEED1Ev
	jmp	.L205
.L261:
	endbr64
	movq	%rax, %rbx
	leaq	-1072(%rbp), %rax
	movq	%rax, %rdi
	call	_ZNSt6vectorIdSaIdEED1Ev
	movq	%rbx, %rax
	jmp	.L207
.L260:
	endbr64
.L207:
	movq	%rax, %rbx
	leaq	-1216(%rbp), %rax
	movq	%rax, %rdi
	call	_ZNSaIdED1Ev
	leaq	-1168(%rbp), %rax
	movq	%rax, %rdi
	call	_ZNSaISt6vectorIdSaIdEEED1Ev
	jmp	.L208
.L264:
	endbr64
	movq	%rax, %rbx
	leaq	-1120(%rbp), %rax
	movq	%rax, %rdi
	call	_ZNSt6vectorIdSaIdEED1Ev
	jmp	.L210
.L263:
	endbr64
	movq	%rax, %rbx
.L210:
	leaq	-1072(%rbp), %rax
	movq	%rax, %rdi
	call	_ZNSt6vectorIdSaIdEED1Ev
	jmp	.L211
.L269:
	endbr64
	movq	%rax, %rbx
	leaq	-1168(%rbp), %rax
	movq	%rax, %rdi
	call	_ZNSt6vectorIiSaIiEED1Ev
	jmp	.L213
.L268:
	endbr64
	movq	%rax, %rbx
.L213:
	leaq	-1072(%rbp), %rax
	movq	%rax, %rdi
	call	_ZNSt3mapIiSt6vectorIiSaIiEESt4lessIiESaISt4pairIKiS2_EEED1Ev
	jmp	.L214
.L267:
	endbr64
	movq	%rax, %rbx
.L214:
	leaq	-1120(%rbp), %rax
	movq	%rax, %rdi
	call	_ZNSt6vectorIiSaIiEED1Ev
	jmp	.L215
.L272:
	endbr64
	movq	%rax, %rbx
	leaq	-1168(%rbp), %rax
	movq	%rax, %rdi
	call	_ZNSt3mapIiSt6vectorIiSaIiEESt4lessIiESaISt4pairIKiS2_EEED1Ev
	jmp	.L217
.L271:
	endbr64
	movq	%rax, %rbx
.L217:
	leaq	-1120(%rbp), %rax
	movq	%rax, %rdi
	call	_ZNSt3mapIiSt6vectorIiSaIiEESt4lessIiESaISt4pairIKiS2_EEED1Ev
	jmp	.L218
.L275:
	endbr64
	movq	%rax, %rbx
	leaq	-384(%rbp), %rax
	movq	%rax, %rdi
	call	_ZNSt7__cxx1112basic_stringIcSt11char_traitsIcESaIcEED1Ev@PLT
	jmp	.L220
.L274:
	endbr64
	movq	%rax, %rbx
.L220:
	leaq	-1168(%rbp), %rax
	movq	%rax, %rdi
	call	_ZNSaIcED1Ev@PLT
	leaq	-1120(%rbp), %rax
	movq	%rax, %rdi
	call	_ZNSt3mapINSt7__cxx1112basic_stringIcSt11char_traitsIcESaIcEEEdSt4lessIS5_ESaISt4pairIKS5_dEEED1Ev
	jmp	.L221
.L277:
	endbr64
	movq	%rax, %rbx
	leaq	-384(%rbp), %rax
	movq	%rax, %rdi
	call	_ZNSt7__cxx1112basic_stringIcSt11char_traitsIcESaIcEED1Ev@PLT
	jmp	.L223
.L276:
	endbr64
	movq	%rax, %rbx
.L223:
	leaq	-1168(%rbp), %rax
	movq	%rax, %rdi
	call	_ZNSaIcED1Ev@PLT
	leaq	-1120(%rbp), %rax
	movq	%rax, %rdi
	call	_ZNSt3mapINSt7__cxx1112basic_stringIcSt11char_traitsIcESaIcEEEdSt4lessIS5_ESaISt4pairIKS5_dEEED1Ev
	jmp	.L221
.L280:
	endbr64
	movq	%rax, %rbx
	leaq	-1168(%rbp), %rax
	movq	%rax, %rdi
	call	_ZNSt6vectorIS_IdSaIdEESaIS1_EED1Ev
	jmp	.L225
.L279:
	endbr64
	movq	%rax, %rbx
.L225:
	leaq	-1120(%rbp), %rax
	movq	%rax, %rdi
	call	_ZNSt6vectorIS_IdSaIdEESaIS1_EED1Ev
	jmp	.L226
.L278:
	endbr64
	movq	%rax, %rbx
.L226:
	leaq	-384(%rbp), %rax
	movq	%rax, %rdi
	call	_ZN11Global_infoD1Ev
	jmp	.L221
.L273:
	endbr64
	movq	%rax, %rbx
.L221:
	leaq	-1072(%rbp), %rax
	movq	%rax, %rdi
	call	_ZN10EvaluationD1Ev@PLT
	jmp	.L218
.L270:
	endbr64
	movq	%rax, %rbx
.L218:
	leaq	-1216(%rbp), %rax
	movq	%rax, %rdi
	call	_ZNSt3mapIiSt6vectorIiSaIiEESt4lessIiESaISt4pairIKiS2_EEED1Ev
	jmp	.L215
.L266:
	endbr64
	movq	%rax, %rbx
.L215:
	leaq	-2064(%rbp), %rax
	movq	%rax, %rdi
	call	_ZNSt6vectorIiSaIiEED1Ev
	jmp	.L227
.L282:
	endbr64
	movq	%rax, %rbx
	leaq	-1072(%rbp), %rax
	movq	%rax, %rdi
	call	_ZNSt3setIiSt4lessIiESaIiEED1Ev
	movq	%rbx, %rax
	jmp	.L229
.L281:
	endbr64
.L229:
	movq	%rax, %rbx
	leaq	-1120(%rbp), %rax
	movq	%rax, %rdi
	call	_ZNSt6vectorIiSaIiEED1Ev
	jmp	.L227
.L265:
	endbr64
	movq	%rax, %rbx
.L227:
	leaq	-736(%rbp), %rax
	movq	%rax, %rdi
	call	_ZN11Global_infoD1Ev
	jmp	.L211
.L262:
	endbr64
	movq	%rax, %rbx
.L211:
	leaq	-2096(%rbp), %rax
	movq	%rax, %rdi
	call	_ZNSt6vectorIS_IdSaIdEESaIS1_EED1Ev
.L208:
	leaq	-2128(%rbp), %rax
	movq	%rax, %rdi
	call	_ZNSt6vectorIS_IdSaIdEESaIS1_EED1Ev
.L205:
	leaq	-2160(%rbp), %rax
	movq	%rax, %rdi
	call	_ZNSt6vectorIdSaIdEED1Ev
.L202:
	leaq	-2192(%rbp), %rax
	movq	%rax, %rdi
	call	_ZNSt6vectorIdSaIdEED1Ev
	jmp	.L200
.L255:
	endbr64
	movq	%rax, %rbx
.L200:
	leaq	-1264(%rbp), %rax
	movq	%rax, %rdi
	call	_ZNSt3mapIiSt6vectorIiSaIiEESt4lessIiESaISt4pairIKiS2_EEED1Ev
	jmp	.L230
.L254:
	endbr64
	movq	%rax, %rbx
.L230:
	leaq	-1312(%rbp), %rax
	movq	%rax, %rdi
	call	_ZNSt3mapIiSt6vectorIiSaIiEESt4lessIiESaISt4pairIKiS2_EEED1Ev
	leaq	-2224(%rbp), %rax
	movq	%rax, %rdi
	call	_ZNSt6vectorIS_IdSaIdEESaIS1_EED1Ev
	jmp	.L198
.L251:
	endbr64
	movq	%rax, %rbx
.L198:
	leaq	-1360(%rbp), %rax
	movq	%rax, %rdi
	call	_ZNSt3mapIiiSt4lessIiESaISt4pairIKiiEEED1Ev
	leaq	-1408(%rbp), %rax
	movq	%rax, %rdi
	call	_ZNSt3mapIiiSt4lessIiESaISt4pairIKiiEEED1Ev
	leaq	-1456(%rbp), %rax
	movq	%rax, %rdi
	call	_ZNSt3mapIiiSt4lessIiESaISt4pairIKiiEEED1Ev
	leaq	-1504(%rbp), %rax
	movq	%rax, %rdi
	call	_ZNSt3mapIiiSt4lessIiESaISt4pairIKiiEEED1Ev
	leaq	-1552(%rbp), %rax
	movq	%rax, %rdi
	call	_ZNSt3mapIiiSt4lessIiESaISt4pairIKiiEEED1Ev
	leaq	-1600(%rbp), %rax
	movq	%rax, %rdi
	call	_ZNSt3mapIiiSt4lessIiESaISt4pairIKiiEEED1Ev
	jmp	.L231
.L250:
	endbr64
	movq	%rax, %rbx
.L231:
	leaq	-1648(%rbp), %rax
	movq	%rax, %rdi
	call	_ZNSt3setIiSt4lessIiESaIiEED1Ev
	jmp	.L232
.L249:
	endbr64
	movq	%rax, %rbx
.L232:
	leaq	-1696(%rbp), %rax
	movq	%rax, %rdi
	call	_ZNSt3setIiSt4lessIiESaIiEED1Ev
	jmp	.L233
.L248:
	endbr64
	movq	%rax, %rbx
.L233:
	leaq	-1744(%rbp), %rax
	movq	%rax, %rdi
	call	_ZNSt3setIiSt4lessIiESaIiEED1Ev
	jmp	.L195
.L247:
	endbr64
	movq	%rax, %rbx
.L195:
	leaq	-1792(%rbp), %rax
	movq	%rax, %rdi
	call	_ZNSt3mapIiSt6vectorIiSaIiEESt4lessIiESaISt4pairIKiS2_EEED1Ev
	leaq	-1840(%rbp), %rax
	movq	%rax, %rdi
	call	_ZNSt3mapIiSt6vectorIiSaIiEESt4lessIiESaISt4pairIKiS2_EEED1Ev
	leaq	-2256(%rbp), %rax
	movq	%rax, %rdi
	call	_ZNSt6vectorIiSaIiEED1Ev
	leaq	-2288(%rbp), %rax
	movq	%rax, %rdi
	call	_ZNSt6vectorIiSaIiEED1Ev
	leaq	-2320(%rbp), %rax
	movq	%rax, %rdi
	call	_ZNSt6vectorIiSaIiEED1Ev
	leaq	-2352(%rbp), %rax
	movq	%rax, %rdi
	call	_ZNSt6vectorIS_IdSaIdEESaIS1_EED1Ev
	jmp	.L234
.L288:
	endbr64
	movq	%rax, %rbx
	leaq	-384(%rbp), %rax
	movq	%rax, %rdi
	call	_ZNSt7__cxx1112basic_stringIcSt11char_traitsIcESaIcEED1Ev@PLT
	jmp	.L236
.L287:
	endbr64
	movq	%rax, %rbx
.L236:
	leaq	-1072(%rbp), %rax
	movq	%rax, %rdi
	call	_ZNSaIcED1Ev@PLT
	jmp	.L237
.L286:
	endbr64
	movq	%rax, %rbx
.L237:
	leaq	-736(%rbp), %rax
	movq	%rax, %rdi
	call	_ZNSt7__cxx1112basic_stringIcSt11char_traitsIcESaIcEED1Ev@PLT
	jmp	.L238
.L285:
	endbr64
	movq	%rax, %rbx
.L238:
	leaq	-1216(%rbp), %rax
	movq	%rax, %rdi
	call	_ZNSaIcED1Ev@PLT
	jmp	.L239
.L290:
	endbr64
	movq	%rax, %rbx
	leaq	-384(%rbp), %rax
	movq	%rax, %rdi
	call	_ZNSt7__cxx1112basic_stringIcSt11char_traitsIcESaIcEED1Ev@PLT
	jmp	.L241
.L289:
	endbr64
	movq	%rax, %rbx
.L241:
	leaq	-1072(%rbp), %rax
	movq	%rax, %rdi
	call	_ZNSaIcED1Ev@PLT
	jmp	.L239
.L291:
	endbr64
	movq	%rax, %rbx
.L239:
	leaq	-768(%rbp), %rax
	movq	%rax, %rdi
	call	_ZNSt7__cxx1112basic_stringIcSt11char_traitsIcESaIcEED1Ev@PLT
	jmp	.L242
.L284:
	endbr64
	movq	%rax, %rbx
.L242:
	leaq	-800(%rbp), %rax
	movq	%rax, %rdi
	call	_ZNSt7__cxx1112basic_stringIcSt11char_traitsIcESaIcEED1Ev@PLT
	jmp	.L243
.L283:
	endbr64
	movq	%rax, %rbx
.L243:
	leaq	-1120(%rbp), %rax
	movq	%rax, %rdi
	call	_ZNSt6vectorINSt7__cxx1112basic_stringIcSt11char_traitsIcESaIcEEESaIS5_EED1Ev
	jmp	.L234
.L245:
	endbr64
	movq	%rax, %rbx
.L234:
	leaq	-2384(%rbp), %rax
	movq	%rax, %rdi
	call	_ZNSt6vectorIS_IdSaIdEESaIS1_EED1Ev
	leaq	-1888(%rbp), %rax
	movq	%rax, %rdi
	call	_ZNSt3mapIiSt6vectorIiSaIiEESt4lessIiESaISt4pairIKiS2_EEED1Ev
	leaq	-1936(%rbp), %rax
	movq	%rax, %rdi
	call	_ZNSt3mapINSt7__cxx1112basic_stringIcSt11char_traitsIcESaIcEEES_IiS_IS5_S_IS5_dSt4lessIS5_ESaISt4pairIKS5_dEEES7_SaIS8_IS9_SC_EEES6_IiESaIS8_IKiSF_EEES7_SaIS8_IS9_SK_EEED1Ev
	leaq	-1984(%rbp), %rax
	movq	%rax, %rdi
	call	_ZNSt3mapIiiSt4lessIiESaISt4pairIKiiEEED1Ev
	leaq	-2416(%rbp), %rax
	movq	%rax, %rdi
	call	_ZNSt6vectorIiSaIiEED1Ev
	leaq	-2032(%rbp), %rax
	movq	%rax, %rdi
	call	_ZNSt3mapIiSt6vectorIiSaIiEESt4lessIiESaISt4pairIKiS2_EEED1Ev
	leaq	-2448(%rbp), %rax
	movq	%rax, %rdi
	call	_ZNSt6vectorIdSaIdEED1Ev
	leaq	-2480(%rbp), %rax
	movq	%rax, %rdi
	call	_ZNSt6vectorIiSaIiEED1Ev
	leaq	-2512(%rbp), %rax
	movq	%rax, %rdi
	call	_ZNSt6vectorIiSaIiEED1Ev
	leaq	-2544(%rbp), %rax
	movq	%rax, %rdi
	call	_ZNSt6vectorIiSaIiEED1Ev
	movq	%rbx, %rax
	movq	%rax, %rdi
.LEHB78:
	call	_Unwind_Resume@PLT
.LEHE78:
.L300:
	call	__stack_chk_fail@PLT
.L244:
	addq	$2768, %rsp
	popq	%rbx
	popq	%r12
	popq	%r13
	popq	%r14
	popq	%rbp
	.cfi_def_cfa 7, 8
	ret
	.cfi_endproc
.LFE8398:
	.section	.gcc_except_table
.LLSDA8398:
	.byte	0xff
	.byte	0xff
	.byte	0x1
	.uleb128 .LLSDACSE8398-.LLSDACSB8398
.LLSDACSB8398:
	.uleb128 .LEHB24-.LFB8398
	.uleb128 .LEHE24-.LEHB24
	.uleb128 .L245-.LFB8398
	.uleb128 0
	.uleb128 .LEHB25-.LFB8398
	.uleb128 .LEHE25-.LEHB25
	.uleb128 .L247-.LFB8398
	.uleb128 0
	.uleb128 .LEHB26-.LFB8398
	.uleb128 .LEHE26-.LEHB26
	.uleb128 .L246-.LFB8398
	.uleb128 0
	.uleb128 .LEHB27-.LFB8398
	.uleb128 .LEHE27-.LEHB27
	.uleb128 .L247-.LFB8398
	.uleb128 0
	.uleb128 .LEHB28-.LFB8398
	.uleb128 .LEHE28-.LEHB28
	.uleb128 .L248-.LFB8398
	.uleb128 0
	.uleb128 .LEHB29-.LFB8398
	.uleb128 .LEHE29-.LEHB29
	.uleb128 .L249-.LFB8398
	.uleb128 0
	.uleb128 .LEHB30-.LFB8398
	.uleb128 .LEHE30-.LEHB30
	.uleb128 .L250-.LFB8398
	.uleb128 0
	.uleb128 .LEHB31-.LFB8398
	.uleb128 .LEHE31-.LEHB31
	.uleb128 .L251-.LFB8398
	.uleb128 0
	.uleb128 .LEHB32-.LFB8398
	.uleb128 .LEHE32-.LEHB32
	.uleb128 .L252-.LFB8398
	.uleb128 0
	.uleb128 .LEHB33-.LFB8398
	.uleb128 .LEHE33-.LEHB33
	.uleb128 .L253-.LFB8398
	.uleb128 0
	.uleb128 .LEHB34-.LFB8398
	.uleb128 .LEHE34-.LEHB34
	.uleb128 .L254-.LFB8398
	.uleb128 0
	.uleb128 .LEHB35-.LFB8398
	.uleb128 .LEHE35-.LEHB35
	.uleb128 .L255-.LFB8398
	.uleb128 0
	.uleb128 .LEHB36-.LFB8398
	.uleb128 .LEHE36-.LEHB36
	.uleb128 .L256-.LFB8398
	.uleb128 0
	.uleb128 .LEHB37-.LFB8398
	.uleb128 .LEHE37-.LEHB37
	.uleb128 .L257-.LFB8398
	.uleb128 0
	.uleb128 .LEHB38-.LFB8398
	.uleb128 .LEHE38-.LEHB38
	.uleb128 .L258-.LFB8398
	.uleb128 0
	.uleb128 .LEHB39-.LFB8398
	.uleb128 .LEHE39-.LEHB39
	.uleb128 .L259-.LFB8398
	.uleb128 0
	.uleb128 .LEHB40-.LFB8398
	.uleb128 .LEHE40-.LEHB40
	.uleb128 .L260-.LFB8398
	.uleb128 0
	.uleb128 .LEHB41-.LFB8398
	.uleb128 .LEHE41-.LEHB41
	.uleb128 .L261-.LFB8398
	.uleb128 0
	.uleb128 .LEHB42-.LFB8398
	.uleb128 .LEHE42-.LEHB42
	.uleb128 .L262-.LFB8398
	.uleb128 0
	.uleb128 .LEHB43-.LFB8398
	.uleb128 .LEHE43-.LEHB43
	.uleb128 .L263-.LFB8398
	.uleb128 0
	.uleb128 .LEHB44-.LFB8398
	.uleb128 .LEHE44-.LEHB44
	.uleb128 .L264-.LFB8398
	.uleb128 0
	.uleb128 .LEHB45-.LFB8398
	.uleb128 .LEHE45-.LEHB45
	.uleb128 .L265-.LFB8398
	.uleb128 0
	.uleb128 .LEHB46-.LFB8398
	.uleb128 .LEHE46-.LEHB46
	.uleb128 .L266-.LFB8398
	.uleb128 0
	.uleb128 .LEHB47-.LFB8398
	.uleb128 .LEHE47-.LEHB47
	.uleb128 .L267-.LFB8398
	.uleb128 0
	.uleb128 .LEHB48-.LFB8398
	.uleb128 .LEHE48-.LEHB48
	.uleb128 .L268-.LFB8398
	.uleb128 0
	.uleb128 .LEHB49-.LFB8398
	.uleb128 .LEHE49-.LEHB49
	.uleb128 .L269-.LFB8398
	.uleb128 0
	.uleb128 .LEHB50-.LFB8398
	.uleb128 .LEHE50-.LEHB50
	.uleb128 .L270-.LFB8398
	.uleb128 0
	.uleb128 .LEHB51-.LFB8398
	.uleb128 .LEHE51-.LEHB51
	.uleb128 .L271-.LFB8398
	.uleb128 0
	.uleb128 .LEHB52-.LFB8398
	.uleb128 .LEHE52-.LEHB52
	.uleb128 .L272-.LFB8398
	.uleb128 0
	.uleb128 .LEHB53-.LFB8398
	.uleb128 .LEHE53-.LEHB53
	.uleb128 .L273-.LFB8398
	.uleb128 0
	.uleb128 .LEHB54-.LFB8398
	.uleb128 .LEHE54-.LEHB54
	.uleb128 .L274-.LFB8398
	.uleb128 0
	.uleb128 .LEHB55-.LFB8398
	.uleb128 .LEHE55-.LEHB55
	.uleb128 .L275-.LFB8398
	.uleb128 0
	.uleb128 .LEHB56-.LFB8398
	.uleb128 .LEHE56-.LEHB56
	.uleb128 .L273-.LFB8398
	.uleb128 0
	.uleb128 .LEHB57-.LFB8398
	.uleb128 .LEHE57-.LEHB57
	.uleb128 .L276-.LFB8398
	.uleb128 0
	.uleb128 .LEHB58-.LFB8398
	.uleb128 .LEHE58-.LEHB58
	.uleb128 .L277-.LFB8398
	.uleb128 0
	.uleb128 .LEHB59-.LFB8398
	.uleb128 .LEHE59-.LEHB59
	.uleb128 .L273-.LFB8398
	.uleb128 0
	.uleb128 .LEHB60-.LFB8398
	.uleb128 .LEHE60-.LEHB60
	.uleb128 .L278-.LFB8398
	.uleb128 0
	.uleb128 .LEHB61-.LFB8398
	.uleb128 .LEHE61-.LEHB61
	.uleb128 .L279-.LFB8398
	.uleb128 0
	.uleb128 .LEHB62-.LFB8398
	.uleb128 .LEHE62-.LEHB62
	.uleb128 .L280-.LFB8398
	.uleb128 0
	.uleb128 .LEHB63-.LFB8398
	.uleb128 .LEHE63-.LEHB63
	.uleb128 .L265-.LFB8398
	.uleb128 0
	.uleb128 .LEHB64-.LFB8398
	.uleb128 .LEHE64-.LEHB64
	.uleb128 .L281-.LFB8398
	.uleb128 0
	.uleb128 .LEHB65-.LFB8398
	.uleb128 .LEHE65-.LEHB65
	.uleb128 .L282-.LFB8398
	.uleb128 0
	.uleb128 .LEHB66-.LFB8398
	.uleb128 .LEHE66-.LEHB66
	.uleb128 .L281-.LFB8398
	.uleb128 0
	.uleb128 .LEHB67-.LFB8398
	.uleb128 .LEHE67-.LEHB67
	.uleb128 .L245-.LFB8398
	.uleb128 0
	.uleb128 .LEHB68-.LFB8398
	.uleb128 .LEHE68-.LEHB68
	.uleb128 .L283-.LFB8398
	.uleb128 0
	.uleb128 .LEHB69-.LFB8398
	.uleb128 .LEHE69-.LEHB69
	.uleb128 .L284-.LFB8398
	.uleb128 0
	.uleb128 .LEHB70-.LFB8398
	.uleb128 .LEHE70-.LEHB70
	.uleb128 .L291-.LFB8398
	.uleb128 0
	.uleb128 .LEHB71-.LFB8398
	.uleb128 .LEHE71-.LEHB71
	.uleb128 .L285-.LFB8398
	.uleb128 0
	.uleb128 .LEHB72-.LFB8398
	.uleb128 .LEHE72-.LEHB72
	.uleb128 .L286-.LFB8398
	.uleb128 0
	.uleb128 .LEHB73-.LFB8398
	.uleb128 .LEHE73-.LEHB73
	.uleb128 .L287-.LFB8398
	.uleb128 0
	.uleb128 .LEHB74-.LFB8398
	.uleb128 .LEHE74-.LEHB74
	.uleb128 .L288-.LFB8398
	.uleb128 0
	.uleb128 .LEHB75-.LFB8398
	.uleb128 .LEHE75-.LEHB75
	.uleb128 .L289-.LFB8398
	.uleb128 0
	.uleb128 .LEHB76-.LFB8398
	.uleb128 .LEHE76-.LEHB76
	.uleb128 .L290-.LFB8398
	.uleb128 0
	.uleb128 .LEHB77-.LFB8398
	.uleb128 .LEHE77-.LEHB77
	.uleb128 .L291-.LFB8398
	.uleb128 0
	.uleb128 .LEHB78-.LFB8398
	.uleb128 .LEHE78-.LEHB78
	.uleb128 0
	.uleb128 0
.LLSDACSE8398:
	.text
	.size	_ZN6Expgen3runEv, .-_ZN6Expgen3runEv
	.section	.text._ZNSt8_Rb_treeINSt7__cxx1112basic_stringIcSt11char_traitsIcESaIcEEESt4pairIKS5_iESt10_Select1stIS8_ESt4lessIS5_ESaIS8_EE13_Rb_tree_implISC_Lb1EED2Ev,"axG",@progbits,_ZNSt8_Rb_treeINSt7__cxx1112basic_stringIcSt11char_traitsIcESaIcEEESt4pairIKS5_iESt10_Select1stIS8_ESt4lessIS5_ESaIS8_EE13_Rb_tree_implISC_Lb1EED5Ev,comdat
	.align 2
	.weak	_ZNSt8_Rb_treeINSt7__cxx1112basic_stringIcSt11char_traitsIcESaIcEEESt4pairIKS5_iESt10_Select1stIS8_ESt4lessIS5_ESaIS8_EE13_Rb_tree_implISC_Lb1EED2Ev
	.type	_ZNSt8_Rb_treeINSt7__cxx1112basic_stringIcSt11char_traitsIcESaIcEEESt4pairIKS5_iESt10_Select1stIS8_ESt4lessIS5_ESaIS8_EE13_Rb_tree_implISC_Lb1EED2Ev, @function
_ZNSt8_Rb_treeINSt7__cxx1112basic_stringIcSt11char_traitsIcESaIcEEESt4pairIKS5_iESt10_Select1stIS8_ESt4lessIS5_ESaIS8_EE13_Rb_tree_implISC_Lb1EED2Ev:
.LFB8496:
	.cfi_startproc
	endbr64
	pushq	%rbp
	.cfi_def_cfa_offset 16
	.cfi_offset 6, -16
	movq	%rsp, %rbp
	.cfi_def_cfa_register 6
	subq	$16, %rsp
	movq	%rdi, -8(%rbp)
	movq	-8(%rbp), %rax
	movq	%rax, %rdi
	call	_ZNSaISt13_Rb_tree_nodeISt4pairIKNSt7__cxx1112basic_stringIcSt11char_traitsIcESaIcEEEiEEED2Ev
	nop
	leave
	.cfi_def_cfa 7, 8
	ret
	.cfi_endproc
.LFE8496:
	.size	_ZNSt8_Rb_treeINSt7__cxx1112basic_stringIcSt11char_traitsIcESaIcEEESt4pairIKS5_iESt10_Select1stIS8_ESt4lessIS5_ESaIS8_EE13_Rb_tree_implISC_Lb1EED2Ev, .-_ZNSt8_Rb_treeINSt7__cxx1112basic_stringIcSt11char_traitsIcESaIcEEESt4pairIKS5_iESt10_Select1stIS8_ESt4lessIS5_ESaIS8_EE13_Rb_tree_implISC_Lb1EED2Ev
	.weak	_ZNSt8_Rb_treeINSt7__cxx1112basic_stringIcSt11char_traitsIcESaIcEEESt4pairIKS5_iESt10_Select1stIS8_ESt4lessIS5_ESaIS8_EE13_Rb_tree_implISC_Lb1EED1Ev
	.set	_ZNSt8_Rb_treeINSt7__cxx1112basic_stringIcSt11char_traitsIcESaIcEEESt4pairIKS5_iESt10_Select1stIS8_ESt4lessIS5_ESaIS8_EE13_Rb_tree_implISC_Lb1EED1Ev,_ZNSt8_Rb_treeINSt7__cxx1112basic_stringIcSt11char_traitsIcESaIcEEESt4pairIKS5_iESt10_Select1stIS8_ESt4lessIS5_ESaIS8_EE13_Rb_tree_implISC_Lb1EED2Ev
	.section	.text._ZNSt8_Rb_treeINSt7__cxx1112basic_stringIcSt11char_traitsIcESaIcEEESt4pairIKS5_iESt10_Select1stIS8_ESt4lessIS5_ESaIS8_EEC2Ev,"axG",@progbits,_ZNSt8_Rb_treeINSt7__cxx1112basic_stringIcSt11char_traitsIcESaIcEEESt4pairIKS5_iESt10_Select1stIS8_ESt4lessIS5_ESaIS8_EEC5Ev,comdat
	.align 2
	.weak	_ZNSt8_Rb_treeINSt7__cxx1112basic_stringIcSt11char_traitsIcESaIcEEESt4pairIKS5_iESt10_Select1stIS8_ESt4lessIS5_ESaIS8_EEC2Ev
	.type	_ZNSt8_Rb_treeINSt7__cxx1112basic_stringIcSt11char_traitsIcESaIcEEESt4pairIKS5_iESt10_Select1stIS8_ESt4lessIS5_ESaIS8_EEC2Ev, @function
_ZNSt8_Rb_treeINSt7__cxx1112basic_stringIcSt11char_traitsIcESaIcEEESt4pairIKS5_iESt10_Select1stIS8_ESt4lessIS5_ESaIS8_EEC2Ev:
.LFB8498:
	.cfi_startproc
	endbr64
	pushq	%rbp
	.cfi_def_cfa_offset 16
	.cfi_offset 6, -16
	movq	%rsp, %rbp
	.cfi_def_cfa_register 6
	subq	$16, %rsp
	movq	%rdi, -8(%rbp)
	movq	-8(%rbp), %rax
	movq	%rax, %rdi
	call	_ZNSt8_Rb_treeINSt7__cxx1112basic_stringIcSt11char_traitsIcESaIcEEESt4pairIKS5_iESt10_Select1stIS8_ESt4lessIS5_ESaIS8_EE13_Rb_tree_implISC_Lb1EEC1Ev
	nop
	leave
	.cfi_def_cfa 7, 8
	ret
	.cfi_endproc
.LFE8498:
	.size	_ZNSt8_Rb_treeINSt7__cxx1112basic_stringIcSt11char_traitsIcESaIcEEESt4pairIKS5_iESt10_Select1stIS8_ESt4lessIS5_ESaIS8_EEC2Ev, .-_ZNSt8_Rb_treeINSt7__cxx1112basic_stringIcSt11char_traitsIcESaIcEEESt4pairIKS5_iESt10_Select1stIS8_ESt4lessIS5_ESaIS8_EEC2Ev
	.weak	_ZNSt8_Rb_treeINSt7__cxx1112basic_stringIcSt11char_traitsIcESaIcEEESt4pairIKS5_iESt10_Select1stIS8_ESt4lessIS5_ESaIS8_EEC1Ev
	.set	_ZNSt8_Rb_treeINSt7__cxx1112basic_stringIcSt11char_traitsIcESaIcEEESt4pairIKS5_iESt10_Select1stIS8_ESt4lessIS5_ESaIS8_EEC1Ev,_ZNSt8_Rb_treeINSt7__cxx1112basic_stringIcSt11char_traitsIcESaIcEEESt4pairIKS5_iESt10_Select1stIS8_ESt4lessIS5_ESaIS8_EEC2Ev
	.section	.text._ZNSt3mapINSt7__cxx1112basic_stringIcSt11char_traitsIcESaIcEEEiSt4lessIS5_ESaISt4pairIKS5_iEEEC2Ev,"axG",@progbits,_ZNSt3mapINSt7__cxx1112basic_stringIcSt11char_traitsIcESaIcEEEiSt4lessIS5_ESaISt4pairIKS5_iEEEC5Ev,comdat
	.align 2
	.weak	_ZNSt3mapINSt7__cxx1112basic_stringIcSt11char_traitsIcESaIcEEEiSt4lessIS5_ESaISt4pairIKS5_iEEEC2Ev
	.type	_ZNSt3mapINSt7__cxx1112basic_stringIcSt11char_traitsIcESaIcEEEiSt4lessIS5_ESaISt4pairIKS5_iEEEC2Ev, @function
_ZNSt3mapINSt7__cxx1112basic_stringIcSt11char_traitsIcESaIcEEEiSt4lessIS5_ESaISt4pairIKS5_iEEEC2Ev:
.LFB8500:
	.cfi_startproc
	endbr64
	pushq	%rbp
	.cfi_def_cfa_offset 16
	.cfi_offset 6, -16
	movq	%rsp, %rbp
	.cfi_def_cfa_register 6
	subq	$16, %rsp
	movq	%rdi, -8(%rbp)
	movq	-8(%rbp), %rax
	movq	%rax, %rdi
	call	_ZNSt8_Rb_treeINSt7__cxx1112basic_stringIcSt11char_traitsIcESaIcEEESt4pairIKS5_iESt10_Select1stIS8_ESt4lessIS5_ESaIS8_EEC1Ev
	nop
	leave
	.cfi_def_cfa 7, 8
	ret
	.cfi_endproc
.LFE8500:
	.size	_ZNSt3mapINSt7__cxx1112basic_stringIcSt11char_traitsIcESaIcEEEiSt4lessIS5_ESaISt4pairIKS5_iEEEC2Ev, .-_ZNSt3mapINSt7__cxx1112basic_stringIcSt11char_traitsIcESaIcEEEiSt4lessIS5_ESaISt4pairIKS5_iEEEC2Ev
	.weak	_ZNSt3mapINSt7__cxx1112basic_stringIcSt11char_traitsIcESaIcEEEiSt4lessIS5_ESaISt4pairIKS5_iEEEC1Ev
	.set	_ZNSt3mapINSt7__cxx1112basic_stringIcSt11char_traitsIcESaIcEEEiSt4lessIS5_ESaISt4pairIKS5_iEEEC1Ev,_ZNSt3mapINSt7__cxx1112basic_stringIcSt11char_traitsIcESaIcEEEiSt4lessIS5_ESaISt4pairIKS5_iEEEC2Ev
	.section	.text._ZNSt3mapINSt7__cxx1112basic_stringIcSt11char_traitsIcESaIcEEEiSt4lessIS5_ESaISt4pairIKS5_iEEED2Ev,"axG",@progbits,_ZNSt3mapINSt7__cxx1112basic_stringIcSt11char_traitsIcESaIcEEEiSt4lessIS5_ESaISt4pairIKS5_iEEED5Ev,comdat
	.align 2
	.weak	_ZNSt3mapINSt7__cxx1112basic_stringIcSt11char_traitsIcESaIcEEEiSt4lessIS5_ESaISt4pairIKS5_iEEED2Ev
	.type	_ZNSt3mapINSt7__cxx1112basic_stringIcSt11char_traitsIcESaIcEEEiSt4lessIS5_ESaISt4pairIKS5_iEEED2Ev, @function
_ZNSt3mapINSt7__cxx1112basic_stringIcSt11char_traitsIcESaIcEEEiSt4lessIS5_ESaISt4pairIKS5_iEEED2Ev:
.LFB8503:
	.cfi_startproc
	endbr64
	pushq	%rbp
	.cfi_def_cfa_offset 16
	.cfi_offset 6, -16
	movq	%rsp, %rbp
	.cfi_def_cfa_register 6
	subq	$16, %rsp
	movq	%rdi, -8(%rbp)
	movq	-8(%rbp), %rax
	movq	%rax, %rdi
	call	_ZNSt8_Rb_treeINSt7__cxx1112basic_stringIcSt11char_traitsIcESaIcEEESt4pairIKS5_iESt10_Select1stIS8_ESt4lessIS5_ESaIS8_EED1Ev
	nop
	leave
	.cfi_def_cfa 7, 8
	ret
	.cfi_endproc
.LFE8503:
	.size	_ZNSt3mapINSt7__cxx1112basic_stringIcSt11char_traitsIcESaIcEEEiSt4lessIS5_ESaISt4pairIKS5_iEEED2Ev, .-_ZNSt3mapINSt7__cxx1112basic_stringIcSt11char_traitsIcESaIcEEEiSt4lessIS5_ESaISt4pairIKS5_iEEED2Ev
	.weak	_ZNSt3mapINSt7__cxx1112basic_stringIcSt11char_traitsIcESaIcEEEiSt4lessIS5_ESaISt4pairIKS5_iEEED1Ev
	.set	_ZNSt3mapINSt7__cxx1112basic_stringIcSt11char_traitsIcESaIcEEEiSt4lessIS5_ESaISt4pairIKS5_iEEED1Ev,_ZNSt3mapINSt7__cxx1112basic_stringIcSt11char_traitsIcESaIcEEEiSt4lessIS5_ESaISt4pairIKS5_iEEED2Ev
	.section	.text._ZN6ExpgenD2Ev,"axG",@progbits,_ZN6ExpgenD5Ev,comdat
	.align 2
	.weak	_ZN6ExpgenD2Ev
	.type	_ZN6ExpgenD2Ev, @function
_ZN6ExpgenD2Ev:
.LFB8509:
	.cfi_startproc
	endbr64
	pushq	%rbp
	.cfi_def_cfa_offset 16
	.cfi_offset 6, -16
	movq	%rsp, %rbp
	.cfi_def_cfa_register 6
	subq	$16, %rsp
	movq	%rdi, -8(%rbp)
	movq	-8(%rbp), %rax
	addq	$104, %rax
	movq	%rax, %rdi
	call	_ZNSt3mapINSt7__cxx1112basic_stringIcSt11char_traitsIcESaIcEEES_IS5_dSt4lessIS5_ESaISt4pairIKS5_dEEES7_SaIS8_IS9_SC_EEED1Ev
	movq	-8(%rbp), %rax
	addq	$64, %rax
	movq	%rax, %rdi
	call	_ZNSt6vectorIS_IdSaIdEESaIS1_EED1Ev
	movq	-8(%rbp), %rax
	addq	$32, %rax
	movq	%rax, %rdi
	call	_ZNSt6vectorIP11GraphRecsysSaIS1_EED1Ev
	movq	-8(%rbp), %rax
	movq	%rax, %rdi
	call	_ZNSt6vectorIS_IdSaIdEESaIS1_EED1Ev
	nop
	leave
	.cfi_def_cfa 7, 8
	ret
	.cfi_endproc
.LFE8509:
	.size	_ZN6ExpgenD2Ev, .-_ZN6ExpgenD2Ev
	.weak	_ZN6ExpgenD1Ev
	.set	_ZN6ExpgenD1Ev,_ZN6ExpgenD2Ev
	.section	.rodata
.LC9:
	.string	"BIP"
.LC10:
	.string	"STG"
.LC11:
	.string	"LSG"
.LC12:
	.string	"NA"
.LC13:
	.string	"CI"
.LC14:
	.string	"CIU"
.LC15:
	.string	"EDF"
.LC16:
	.string	"LDF"
.LC17:
	.string	"ET"
.LC18:
	.string	"IT"
.LC19:
	.string	"-"
.LC20:
	.string	"delta"
.LC21:
	.string	"-Delta-"
.LC22:
	.string	"beta"
.LC23:
	.string	"-Beta-"
.LC24:
	.string	"nt"
.LC25:
	.string	"-T0-"
.LC26:
	.string	"ta"
.LC27:
	.string	"-K-"
.LC28:
	.string	"k"
.LC29:
	.string	"-Gamma-"
.LC30:
	.string	"alpha"
.LC31:
	.string	"-Alpha-"
.LC32:
	.string	"GraFC2T2"
.LC33:
	.string	"BEGIN : "
.LC35:
	.string	"/"
.LC36:
	.string	"-RESULTS-"
.LC37:
	.string	".txt"
.LC38:
	.string	"\n----> "
.LC39:
	.string	"\n"
.LC40:
	.string	" = "
.LC41:
	.string	"END : "
	.text
	.globl	_Z8main_runSt6vectorIP10List_paramSaIS1_EES_IS_IdSaIdEESaIS5_EES7_S_INSt7__cxx1112basic_stringIcSt11char_traitsIcESaIcEEESaISD_EEi
	.type	_Z8main_runSt6vectorIP10List_paramSaIS1_EES_IS_IdSaIdEESaIS5_EES7_S_INSt7__cxx1112basic_stringIcSt11char_traitsIcESaIcEEESaISD_EEi, @function
_Z8main_runSt6vectorIP10List_paramSaIS1_EES_IS_IdSaIdEESaIS5_EES7_S_INSt7__cxx1112basic_stringIcSt11char_traitsIcESaIcEEESaISD_EEi:
.LFB8492:
	.cfi_startproc
	.cfi_personality 0x9b,DW.ref.__gxx_personality_v0
	.cfi_lsda 0x1b,.LLSDA8492
	endbr64
	pushq	%rbp
	.cfi_def_cfa_offset 16
	.cfi_offset 6, -16
	movq	%rsp, %rbp
	.cfi_def_cfa_register 6
	pushq	%r13
	pushq	%r12
	pushq	%rbx
	subq	$1416, %rsp
	.cfi_offset 13, -24
	.cfi_offset 12, -32
	.cfi_offset 3, -40
	movq	%rdi, -1400(%rbp)
	movq	%rsi, -1408(%rbp)
	movq	%rdx, -1416(%rbp)
	movq	%rcx, -1424(%rbp)
	movl	%r8d, -1428(%rbp)
	movq	%fs:40, %rax
	movq	%rax, -40(%rbp)
	xorl	%eax, %eax
	movq	-1408(%rbp), %rax
	movl	$0, %esi
	movq	%rax, %rdi
	call	_ZNSt6vectorIS_IdSaIdEESaIS1_EEixEm
	movl	$0, %esi
	movq	%rax, %rdi
	call	_ZNSt6vectorIdSaIdEEixEm
	movsd	(%rax), %xmm0
	movsd	%xmm0, -1368(%rbp)
	movq	-1408(%rbp), %rax
	movq	%rax, %rdi
	call	_ZNKSt6vectorIS_IdSaIdEESaIS1_EE4sizeEv
	leaq	-1(%rax), %rdx
	movq	-1408(%rbp), %rax
	movq	%rdx, %rsi
	movq	%rax, %rdi
	call	_ZNSt6vectorIS_IdSaIdEESaIS1_EEixEm
	movl	$0, %esi
	movq	%rax, %rdi
	call	_ZNSt6vectorIdSaIdEEixEm
	movsd	(%rax), %xmm0
	movsd	%xmm0, -1360(%rbp)
	cmpl	$2, -1428(%rbp)
	jg	.L307
	movl	$2, -1428(%rbp)
.L307:
	movsd	-1360(%rbp), %xmm0
	movapd	%xmm0, %xmm1
	subsd	-1368(%rbp), %xmm1
	cvtsi2sdl	-1428(%rbp), %xmm0
	addsd	%xmm1, %xmm0
	cvtsi2sdl	-1428(%rbp), %xmm1
	divsd	%xmm1, %xmm0
	cvttsd2sil	%xmm0, %eax
	movl	%eax, -1376(%rbp)
	leaq	-1248(%rbp), %rax
	movq	%rax, %rdi
	call	_ZNSt3mapINSt7__cxx1112basic_stringIcSt11char_traitsIcESaIcEEEiSt4lessIS5_ESaISt4pairIKS5_iEEEC1Ev
	leaq	-1200(%rbp), %rax
	movq	%rax, %rdi
	call	_ZNSt3mapINSt7__cxx1112basic_stringIcSt11char_traitsIcESaIcEEEiSt4lessIS5_ESaISt4pairIKS5_iEEEC1Ev
	leaq	-1152(%rbp), %rax
	movq	%rax, %rdi
	call	_ZNSt3mapINSt7__cxx1112basic_stringIcSt11char_traitsIcESaIcEEEiSt4lessIS5_ESaISt4pairIKS5_iEEEC1Ev
	leaq	-1104(%rbp), %rax
	movq	%rax, %rdi
	call	_ZNSt3mapINSt7__cxx1112basic_stringIcSt11char_traitsIcESaIcEEEiSt4lessIS5_ESaISt4pairIKS5_iEEEC1Ev
	leaq	-1008(%rbp), %rax
	movq	%rax, %rdi
	call	_ZNSaIcEC1Ev@PLT
	leaq	-1008(%rbp), %rdx
	leaq	-560(%rbp), %rax
	leaq	.LC9(%rip), %rsi
	movq	%rax, %rdi
.LEHB79:
	call	_ZNSt7__cxx1112basic_stringIcSt11char_traitsIcESaIcEEC1EPKcRKS3_@PLT
.LEHE79:
	leaq	-560(%rbp), %rdx
	leaq	-1248(%rbp), %rax
	movq	%rdx, %rsi
	movq	%rax, %rdi
.LEHB80:
	call	_ZNSt3mapINSt7__cxx1112basic_stringIcSt11char_traitsIcESaIcEEEiSt4lessIS5_ESaISt4pairIKS5_iEEEixEOS5_
.LEHE80:
	movl	$0, (%rax)
	leaq	-560(%rbp), %rax
	movq	%rax, %rdi
	call	_ZNSt7__cxx1112basic_stringIcSt11char_traitsIcESaIcEED1Ev@PLT
	leaq	-1008(%rbp), %rax
	movq	%rax, %rdi
	call	_ZNSaIcED1Ev@PLT
	leaq	-1008(%rbp), %rax
	movq	%rax, %rdi
	call	_ZNSaIcEC1Ev@PLT
	leaq	-1008(%rbp), %rdx
	leaq	-560(%rbp), %rax
	leaq	.LC10(%rip), %rsi
	movq	%rax, %rdi
.LEHB81:
	call	_ZNSt7__cxx1112basic_stringIcSt11char_traitsIcESaIcEEC1EPKcRKS3_@PLT
.LEHE81:
	leaq	-560(%rbp), %rdx
	leaq	-1248(%rbp), %rax
	movq	%rdx, %rsi
	movq	%rax, %rdi
.LEHB82:
	call	_ZNSt3mapINSt7__cxx1112basic_stringIcSt11char_traitsIcESaIcEEEiSt4lessIS5_ESaISt4pairIKS5_iEEEixEOS5_
.LEHE82:
	movl	$1, (%rax)
	leaq	-560(%rbp), %rax
	movq	%rax, %rdi
	call	_ZNSt7__cxx1112basic_stringIcSt11char_traitsIcESaIcEED1Ev@PLT
	leaq	-1008(%rbp), %rax
	movq	%rax, %rdi
	call	_ZNSaIcED1Ev@PLT
	leaq	-1008(%rbp), %rax
	movq	%rax, %rdi
	call	_ZNSaIcEC1Ev@PLT
	leaq	-1008(%rbp), %rdx
	leaq	-560(%rbp), %rax
	leaq	.LC11(%rip), %rsi
	movq	%rax, %rdi
.LEHB83:
	call	_ZNSt7__cxx1112basic_stringIcSt11char_traitsIcESaIcEEC1EPKcRKS3_@PLT
.LEHE83:
	leaq	-560(%rbp), %rdx
	leaq	-1248(%rbp), %rax
	movq	%rdx, %rsi
	movq	%rax, %rdi
.LEHB84:
	call	_ZNSt3mapINSt7__cxx1112basic_stringIcSt11char_traitsIcESaIcEEEiSt4lessIS5_ESaISt4pairIKS5_iEEEixEOS5_
.LEHE84:
	movl	$2, (%rax)
	leaq	-560(%rbp), %rax
	movq	%rax, %rdi
	call	_ZNSt7__cxx1112basic_stringIcSt11char_traitsIcESaIcEED1Ev@PLT
	leaq	-1008(%rbp), %rax
	movq	%rax, %rdi
	call	_ZNSaIcED1Ev@PLT
	leaq	-1008(%rbp), %rax
	movq	%rax, %rdi
	call	_ZNSaIcEC1Ev@PLT
	leaq	-1008(%rbp), %rdx
	leaq	-560(%rbp), %rax
	leaq	.LC12(%rip), %rsi
	movq	%rax, %rdi
.LEHB85:
	call	_ZNSt7__cxx1112basic_stringIcSt11char_traitsIcESaIcEEC1EPKcRKS3_@PLT
.LEHE85:
	leaq	-560(%rbp), %rdx
	leaq	-1200(%rbp), %rax
	movq	%rdx, %rsi
	movq	%rax, %rdi
.LEHB86:
	call	_ZNSt3mapINSt7__cxx1112basic_stringIcSt11char_traitsIcESaIcEEEiSt4lessIS5_ESaISt4pairIKS5_iEEEixEOS5_
.LEHE86:
	movl	$0, (%rax)
	leaq	-560(%rbp), %rax
	movq	%rax, %rdi
	call	_ZNSt7__cxx1112basic_stringIcSt11char_traitsIcESaIcEED1Ev@PLT
	leaq	-1008(%rbp), %rax
	movq	%rax, %rdi
	call	_ZNSaIcED1Ev@PLT
	leaq	-1008(%rbp), %rax
	movq	%rax, %rdi
	call	_ZNSaIcEC1Ev@PLT
	leaq	-1008(%rbp), %rdx
	leaq	-560(%rbp), %rax
	leaq	.LC13(%rip), %rsi
	movq	%rax, %rdi
.LEHB87:
	call	_ZNSt7__cxx1112basic_stringIcSt11char_traitsIcESaIcEEC1EPKcRKS3_@PLT
.LEHE87:
	leaq	-560(%rbp), %rdx
	leaq	-1200(%rbp), %rax
	movq	%rdx, %rsi
	movq	%rax, %rdi
.LEHB88:
	call	_ZNSt3mapINSt7__cxx1112basic_stringIcSt11char_traitsIcESaIcEEEiSt4lessIS5_ESaISt4pairIKS5_iEEEixEOS5_
.LEHE88:
	movl	$1, (%rax)
	leaq	-560(%rbp), %rax
	movq	%rax, %rdi
	call	_ZNSt7__cxx1112basic_stringIcSt11char_traitsIcESaIcEED1Ev@PLT
	leaq	-1008(%rbp), %rax
	movq	%rax, %rdi
	call	_ZNSaIcED1Ev@PLT
	leaq	-1008(%rbp), %rax
	movq	%rax, %rdi
	call	_ZNSaIcEC1Ev@PLT
	leaq	-1008(%rbp), %rdx
	leaq	-560(%rbp), %rax
	leaq	.LC14(%rip), %rsi
	movq	%rax, %rdi
.LEHB89:
	call	_ZNSt7__cxx1112basic_stringIcSt11char_traitsIcESaIcEEC1EPKcRKS3_@PLT
.LEHE89:
	leaq	-560(%rbp), %rdx
	leaq	-1200(%rbp), %rax
	movq	%rdx, %rsi
	movq	%rax, %rdi
.LEHB90:
	call	_ZNSt3mapINSt7__cxx1112basic_stringIcSt11char_traitsIcESaIcEEEiSt4lessIS5_ESaISt4pairIKS5_iEEEixEOS5_
.LEHE90:
	movl	$3, (%rax)
	leaq	-560(%rbp), %rax
	movq	%rax, %rdi
	call	_ZNSt7__cxx1112basic_stringIcSt11char_traitsIcESaIcEED1Ev@PLT
	leaq	-1008(%rbp), %rax
	movq	%rax, %rdi
	call	_ZNSaIcED1Ev@PLT
	leaq	-1008(%rbp), %rax
	movq	%rax, %rdi
	call	_ZNSaIcEC1Ev@PLT
	leaq	-1008(%rbp), %rdx
	leaq	-560(%rbp), %rax
	leaq	.LC12(%rip), %rsi
	movq	%rax, %rdi
.LEHB91:
	call	_ZNSt7__cxx1112basic_stringIcSt11char_traitsIcESaIcEEC1EPKcRKS3_@PLT
.LEHE91:
	leaq	-560(%rbp), %rdx
	leaq	-1152(%rbp), %rax
	movq	%rdx, %rsi
	movq	%rax, %rdi
.LEHB92:
	call	_ZNSt3mapINSt7__cxx1112basic_stringIcSt11char_traitsIcESaIcEEEiSt4lessIS5_ESaISt4pairIKS5_iEEEixEOS5_
.LEHE92:
	movl	$0, (%rax)
	leaq	-560(%rbp), %rax
	movq	%rax, %rdi
	call	_ZNSt7__cxx1112basic_stringIcSt11char_traitsIcESaIcEED1Ev@PLT
	leaq	-1008(%rbp), %rax
	movq	%rax, %rdi
	call	_ZNSaIcED1Ev@PLT
	leaq	-1008(%rbp), %rax
	movq	%rax, %rdi
	call	_ZNSaIcEC1Ev@PLT
	leaq	-1008(%rbp), %rdx
	leaq	-560(%rbp), %rax
	leaq	.LC15(%rip), %rsi
	movq	%rax, %rdi
.LEHB93:
	call	_ZNSt7__cxx1112basic_stringIcSt11char_traitsIcESaIcEEC1EPKcRKS3_@PLT
.LEHE93:
	leaq	-560(%rbp), %rdx
	leaq	-1152(%rbp), %rax
	movq	%rdx, %rsi
	movq	%rax, %rdi
.LEHB94:
	call	_ZNSt3mapINSt7__cxx1112basic_stringIcSt11char_traitsIcESaIcEEEiSt4lessIS5_ESaISt4pairIKS5_iEEEixEOS5_
.LEHE94:
	movl	$1, (%rax)
	leaq	-560(%rbp), %rax
	movq	%rax, %rdi
	call	_ZNSt7__cxx1112basic_stringIcSt11char_traitsIcESaIcEED1Ev@PLT
	leaq	-1008(%rbp), %rax
	movq	%rax, %rdi
	call	_ZNSaIcED1Ev@PLT
	leaq	-1008(%rbp), %rax
	movq	%rax, %rdi
	call	_ZNSaIcEC1Ev@PLT
	leaq	-1008(%rbp), %rdx
	leaq	-560(%rbp), %rax
	leaq	.LC16(%rip), %rsi
	movq	%rax, %rdi
.LEHB95:
	call	_ZNSt7__cxx1112basic_stringIcSt11char_traitsIcESaIcEEC1EPKcRKS3_@PLT
.LEHE95:
	leaq	-560(%rbp), %rdx
	leaq	-1152(%rbp), %rax
	movq	%rdx, %rsi
	movq	%rax, %rdi
.LEHB96:
	call	_ZNSt3mapINSt7__cxx1112basic_stringIcSt11char_traitsIcESaIcEEEiSt4lessIS5_ESaISt4pairIKS5_iEEEixEOS5_
.LEHE96:
	movl	$2, (%rax)
	leaq	-560(%rbp), %rax
	movq	%rax, %rdi
	call	_ZNSt7__cxx1112basic_stringIcSt11char_traitsIcESaIcEED1Ev@PLT
	leaq	-1008(%rbp), %rax
	movq	%rax, %rdi
	call	_ZNSaIcED1Ev@PLT
	leaq	-1008(%rbp), %rax
	movq	%rax, %rdi
	call	_ZNSaIcEC1Ev@PLT
	leaq	-1008(%rbp), %rdx
	leaq	-560(%rbp), %rax
	leaq	.LC12(%rip), %rsi
	movq	%rax, %rdi
.LEHB97:
	call	_ZNSt7__cxx1112basic_stringIcSt11char_traitsIcESaIcEEC1EPKcRKS3_@PLT
.LEHE97:
	leaq	-560(%rbp), %rdx
	leaq	-1104(%rbp), %rax
	movq	%rdx, %rsi
	movq	%rax, %rdi
.LEHB98:
	call	_ZNSt3mapINSt7__cxx1112basic_stringIcSt11char_traitsIcESaIcEEEiSt4lessIS5_ESaISt4pairIKS5_iEEEixEOS5_
.LEHE98:
	movl	$0, (%rax)
	leaq	-560(%rbp), %rax
	movq	%rax, %rdi
	call	_ZNSt7__cxx1112basic_stringIcSt11char_traitsIcESaIcEED1Ev@PLT
	leaq	-1008(%rbp), %rax
	movq	%rax, %rdi
	call	_ZNSaIcED1Ev@PLT
	leaq	-1008(%rbp), %rax
	movq	%rax, %rdi
	call	_ZNSaIcEC1Ev@PLT
	leaq	-1008(%rbp), %rdx
	leaq	-560(%rbp), %rax
	leaq	.LC17(%rip), %rsi
	movq	%rax, %rdi
.LEHB99:
	call	_ZNSt7__cxx1112basic_stringIcSt11char_traitsIcESaIcEEC1EPKcRKS3_@PLT
.LEHE99:
	leaq	-560(%rbp), %rdx
	leaq	-1104(%rbp), %rax
	movq	%rdx, %rsi
	movq	%rax, %rdi
.LEHB100:
	call	_ZNSt3mapINSt7__cxx1112basic_stringIcSt11char_traitsIcESaIcEEEiSt4lessIS5_ESaISt4pairIKS5_iEEEixEOS5_
.LEHE100:
	movl	$1, (%rax)
	leaq	-560(%rbp), %rax
	movq	%rax, %rdi
	call	_ZNSt7__cxx1112basic_stringIcSt11char_traitsIcESaIcEED1Ev@PLT
	leaq	-1008(%rbp), %rax
	movq	%rax, %rdi
	call	_ZNSaIcED1Ev@PLT
	leaq	-1008(%rbp), %rax
	movq	%rax, %rdi
	call	_ZNSaIcEC1Ev@PLT
	leaq	-1008(%rbp), %rdx
	leaq	-560(%rbp), %rax
	leaq	.LC18(%rip), %rsi
	movq	%rax, %rdi
.LEHB101:
	call	_ZNSt7__cxx1112basic_stringIcSt11char_traitsIcESaIcEEC1EPKcRKS3_@PLT
.LEHE101:
	leaq	-560(%rbp), %rdx
	leaq	-1104(%rbp), %rax
	movq	%rdx, %rsi
	movq	%rax, %rdi
.LEHB102:
	call	_ZNSt3mapINSt7__cxx1112basic_stringIcSt11char_traitsIcESaIcEEEiSt4lessIS5_ESaISt4pairIKS5_iEEEixEOS5_
.LEHE102:
	movl	$2, (%rax)
	leaq	-560(%rbp), %rax
	movq	%rax, %rdi
	call	_ZNSt7__cxx1112basic_stringIcSt11char_traitsIcESaIcEED1Ev@PLT
	leaq	-1008(%rbp), %rax
	movq	%rax, %rdi
	call	_ZNSaIcED1Ev@PLT
	leaq	-1344(%rbp), %rax
	movq	%rax, %rdi
	call	_ZNSt6vectorIP11GraphRecsysSaIS1_EEC1Ev
	movl	$0, -1388(%rbp)
.L317:
	movl	-1388(%rbp), %eax
	movslq	%eax, %rbx
	movq	-1400(%rbp), %rax
	movq	%rax, %rdi
	call	_ZNKSt6vectorIP10List_paramSaIS1_EE4sizeEv
	cmpq	%rax, %rbx
	setb	%al
	testb	%al, %al
	je	.L308
	movl	-1388(%rbp), %eax
	movslq	%eax, %rdx
	movq	-1400(%rbp), %rax
	movq	%rdx, %rsi
	movq	%rax, %rdi
	call	_ZNSt6vectorIP10List_paramSaIS1_EEixEm
	movq	(%rax), %rax
	leaq	96(%rax), %rbx
	movl	-1388(%rbp), %eax
	movslq	%eax, %rdx
	movq	-1400(%rbp), %rax
	movq	%rdx, %rsi
	movq	%rax, %rdi
	call	_ZNSt6vectorIP10List_paramSaIS1_EEixEm
	movq	(%rax), %rax
	leaq	64(%rax), %r12
	movl	-1388(%rbp), %eax
	movslq	%eax, %rdx
	movq	-1400(%rbp), %rax
	movq	%rdx, %rsi
	movq	%rax, %rdi
	call	_ZNSt6vectorIP10List_paramSaIS1_EEixEm
	movq	(%rax), %rax
	leaq	32(%rax), %r13
	movl	-1388(%rbp), %eax
	movslq	%eax, %rdx
	movq	-1400(%rbp), %rax
	movq	%rdx, %rsi
	movq	%rax, %rdi
	call	_ZNSt6vectorIP10List_paramSaIS1_EEixEm
	movq	(%rax), %rax
	movq	%rax, %rcx
	leaq	-688(%rbp), %rax
	leaq	.LC19(%rip), %rdx
	movq	%rcx, %rsi
	movq	%rax, %rdi
.LEHB103:
	call	_ZStplIcSt11char_traitsIcESaIcEENSt7__cxx1112basic_stringIT_T0_T1_EERKS8_PKS5_
.LEHE103:
	leaq	-656(%rbp), %rax
	leaq	-688(%rbp), %rcx
	movq	%r13, %rdx
	movq	%rcx, %rsi
	movq	%rax, %rdi
.LEHB104:
	call	_ZStplIcSt11char_traitsIcESaIcEENSt7__cxx1112basic_stringIT_T0_T1_EEOS8_RKS8_
.LEHE104:
	leaq	-624(%rbp), %rax
	leaq	-656(%rbp), %rcx
	leaq	.LC19(%rip), %rdx
	movq	%rcx, %rsi
	movq	%rax, %rdi
.LEHB105:
	call	_ZStplIcSt11char_traitsIcESaIcEENSt7__cxx1112basic_stringIT_T0_T1_EEOS8_PKS5_
.LEHE105:
	leaq	-592(%rbp), %rax
	leaq	-624(%rbp), %rcx
	movq	%r12, %rdx
	movq	%rcx, %rsi
	movq	%rax, %rdi
.LEHB106:
	call	_ZStplIcSt11char_traitsIcESaIcEENSt7__cxx1112basic_stringIT_T0_T1_EEOS8_RKS8_
.LEHE106:
	leaq	-560(%rbp), %rax
	leaq	-592(%rbp), %rcx
	leaq	.LC19(%rip), %rdx
	movq	%rcx, %rsi
	movq	%rax, %rdi
.LEHB107:
	call	_ZStplIcSt11char_traitsIcESaIcEENSt7__cxx1112basic_stringIT_T0_T1_EEOS8_PKS5_
.LEHE107:
	leaq	-720(%rbp), %rax
	leaq	-560(%rbp), %rcx
	movq	%rbx, %rdx
	movq	%rcx, %rsi
	movq	%rax, %rdi
.LEHB108:
	call	_ZStplIcSt11char_traitsIcESaIcEENSt7__cxx1112basic_stringIT_T0_T1_EEOS8_RKS8_
.LEHE108:
	leaq	-560(%rbp), %rax
	movq	%rax, %rdi
	call	_ZNSt7__cxx1112basic_stringIcSt11char_traitsIcESaIcEED1Ev@PLT
	leaq	-592(%rbp), %rax
	movq	%rax, %rdi
	call	_ZNSt7__cxx1112basic_stringIcSt11char_traitsIcESaIcEED1Ev@PLT
	leaq	-624(%rbp), %rax
	movq	%rax, %rdi
	call	_ZNSt7__cxx1112basic_stringIcSt11char_traitsIcESaIcEED1Ev@PLT
	leaq	-656(%rbp), %rax
	movq	%rax, %rdi
	call	_ZNSt7__cxx1112basic_stringIcSt11char_traitsIcESaIcEED1Ev@PLT
	leaq	-688(%rbp), %rax
	movq	%rax, %rdi
	call	_ZNSt7__cxx1112basic_stringIcSt11char_traitsIcESaIcEED1Ev@PLT
	leaq	-1280(%rbp), %rax
	movq	%rax, %rdi
	call	_ZNSaIiEC1Ev
	movl	$0, -1008(%rbp)
	leaq	-1280(%rbp), %rcx
	leaq	-1008(%rbp), %rdx
	leaq	-1056(%rbp), %rax
	movl	$4, %esi
	movq	%rax, %rdi
.LEHB109:
	call	_ZNSt6vectorIiSaIiEEC1EmRKiRKS0_
.LEHE109:
	leaq	-1280(%rbp), %rax
	movq	%rax, %rdi
	call	_ZNSaIiED1Ev
	movl	-1388(%rbp), %eax
	movslq	%eax, %rdx
	movq	-1400(%rbp), %rax
	movq	%rdx, %rsi
	movq	%rax, %rdi
	call	_ZNSt6vectorIP10List_paramSaIS1_EEixEm
	movq	(%rax), %rax
	movq	%rax, %rdx
	leaq	-1248(%rbp), %rax
	movq	%rdx, %rsi
	movq	%rax, %rdi
.LEHB110:
	call	_ZNSt3mapINSt7__cxx1112basic_stringIcSt11char_traitsIcESaIcEEEiSt4lessIS5_ESaISt4pairIKS5_iEEEixERS9_
	movq	%rax, %rbx
	leaq	-1056(%rbp), %rax
	movl	$0, %esi
	movq	%rax, %rdi
	call	_ZNSt6vectorIiSaIiEEixEm
	movl	(%rbx), %edx
	movl	%edx, (%rax)
	movl	-1388(%rbp), %eax
	movslq	%eax, %rdx
	movq	-1400(%rbp), %rax
	movq	%rdx, %rsi
	movq	%rax, %rdi
	call	_ZNSt6vectorIP10List_paramSaIS1_EEixEm
	movq	(%rax), %rax
	leaq	32(%rax), %rdx
	leaq	-1200(%rbp), %rax
	movq	%rdx, %rsi
	movq	%rax, %rdi
	call	_ZNSt3mapINSt7__cxx1112basic_stringIcSt11char_traitsIcESaIcEEEiSt4lessIS5_ESaISt4pairIKS5_iEEEixERS9_
	movq	%rax, %rbx
	leaq	-1056(%rbp), %rax
	movl	$1, %esi
	movq	%rax, %rdi
	call	_ZNSt6vectorIiSaIiEEixEm
	movl	(%rbx), %edx
	movl	%edx, (%rax)
	movl	-1388(%rbp), %eax
	movslq	%eax, %rdx
	movq	-1400(%rbp), %rax
	movq	%rdx, %rsi
	movq	%rax, %rdi
	call	_ZNSt6vectorIP10List_paramSaIS1_EEixEm
	movq	(%rax), %rax
	leaq	64(%rax), %rdx
	leaq	-1152(%rbp), %rax
	movq	%rdx, %rsi
	movq	%rax, %rdi
	call	_ZNSt3mapINSt7__cxx1112basic_stringIcSt11char_traitsIcESaIcEEEiSt4lessIS5_ESaISt4pairIKS5_iEEEixERS9_
	movq	%rax, %rbx
	leaq	-1056(%rbp), %rax
	movl	$2, %esi
	movq	%rax, %rdi
	call	_ZNSt6vectorIiSaIiEEixEm
	movl	(%rbx), %edx
	movl	%edx, (%rax)
	movl	-1388(%rbp), %eax
	movslq	%eax, %rdx
	movq	-1400(%rbp), %rax
	movq	%rdx, %rsi
	movq	%rax, %rdi
	call	_ZNSt6vectorIP10List_paramSaIS1_EEixEm
	movq	(%rax), %rax
	leaq	96(%rax), %rdx
	leaq	-1104(%rbp), %rax
	movq	%rdx, %rsi
	movq	%rax, %rdi
	call	_ZNSt3mapINSt7__cxx1112basic_stringIcSt11char_traitsIcESaIcEEEiSt4lessIS5_ESaISt4pairIKS5_iEEEixERS9_
	movq	%rax, %rbx
	leaq	-1056(%rbp), %rax
	movl	$3, %esi
	movq	%rax, %rdi
	call	_ZNSt6vectorIiSaIiEEixEm
	movl	(%rbx), %edx
	movl	%edx, (%rax)
	leaq	-1056(%rbp), %rdx
	leaq	-1008(%rbp), %rax
	movq	%rdx, %rsi
	movq	%rax, %rdi
	call	_ZNSt6vectorIiSaIiEEC1ERKS1_
.LEHE110:
	leaq	-1008(%rbp), %rax
	movq	%rax, %rdi
.LEHB111:
	call	_Z10get_recsysSt6vectorIiSaIiEE@PLT
.LEHE111:
	movq	%rax, -1352(%rbp)
	leaq	-1008(%rbp), %rax
	movq	%rax, %rdi
	call	_ZNSt6vectorIiSaIiEED1Ev
	movq	-1352(%rbp), %rax
	movq	(%rax), %rax
	movq	%rax, -1280(%rbp)
	movq	-1352(%rbp), %rax
	leaq	8(%rax), %rdx
	leaq	-1008(%rbp), %rax
	movq	%rdx, %rsi
	movq	%rax, %rdi
.LEHB112:
	call	_ZNSt6vectorINSt7__cxx1112basic_stringIcSt11char_traitsIcESaIcEEESaIS5_EEC1ERKS7_
.LEHE112:
	leaq	-1312(%rbp), %rax
	movq	%rax, %rdi
	call	_ZNSaIcEC1Ev@PLT
	leaq	-1312(%rbp), %rdx
	leaq	-656(%rbp), %rax
	leaq	.LC4(%rip), %rsi
	movq	%rax, %rdi
.LEHB113:
	call	_ZNSt7__cxx1112basic_stringIcSt11char_traitsIcESaIcEEC1EPKcRKS3_@PLT
.LEHE113:
	leaq	-1312(%rbp), %rax
	movq	%rax, %rdi
	call	_ZNSaIcED1Ev@PLT
	movl	$0, -1384(%rbp)
.L316:
	movl	-1384(%rbp), %eax
	movslq	%eax, %rbx
	leaq	-1008(%rbp), %rax
	movq	%rax, %rdi
	call	_ZNKSt6vectorINSt7__cxx1112basic_stringIcSt11char_traitsIcESaIcEEESaIS5_EE4sizeEv
	cmpq	%rax, %rbx
	setb	%al
	testb	%al, %al
	je	.L309
	movl	-1384(%rbp), %eax
	movslq	%eax, %rdx
	leaq	-1008(%rbp), %rax
	movq	%rdx, %rsi
	movq	%rax, %rdi
	call	_ZNSt6vectorINSt7__cxx1112basic_stringIcSt11char_traitsIcESaIcEEESaIS5_EEixEm
	leaq	.LC20(%rip), %rsi
	movq	%rax, %rdi
	call	_ZSteqIcSt11char_traitsIcESaIcEEbRKNSt7__cxx1112basic_stringIT_T0_T1_EEPKS5_
	testb	%al, %al
	je	.L310
	movl	-1388(%rbp), %eax
	movslq	%eax, %rdx
	movq	-1400(%rbp), %rax
	movq	%rdx, %rsi
	movq	%rax, %rdi
	call	_ZNSt6vectorIP10List_paramSaIS1_EEixEm
	movq	(%rax), %rax
	movl	128(%rax), %edx
	movq	-1280(%rbp), %rax
	imull	$86400, %edx, %edx
	movl	%edx, 108(%rax)
	movl	-1388(%rbp), %eax
	movslq	%eax, %rdx
	movq	-1400(%rbp), %rax
	movq	%rdx, %rsi
	movq	%rax, %rdi
	call	_ZNSt6vectorIP10List_paramSaIS1_EEixEm
	movq	(%rax), %rax
	movl	128(%rax), %edx
	leaq	-592(%rbp), %rax
	movl	%edx, %esi
	movq	%rax, %rdi
.LEHB114:
	call	_ZNSt7__cxx119to_stringEi
.LEHE114:
	leaq	-560(%rbp), %rax
	leaq	-592(%rbp), %rdx
	leaq	.LC21(%rip), %rsi
	movq	%rax, %rdi
.LEHB115:
	call	_ZStplIcSt11char_traitsIcESaIcEENSt7__cxx1112basic_stringIT_T0_T1_EEPKS5_OS8_
.LEHE115:
	leaq	-560(%rbp), %rdx
	leaq	-656(%rbp), %rax
	movq	%rdx, %rsi
	movq	%rax, %rdi
.LEHB116:
	call	_ZNSt7__cxx1112basic_stringIcSt11char_traitsIcESaIcEEpLERKS4_@PLT
.LEHE116:
	leaq	-560(%rbp), %rax
	movq	%rax, %rdi
	call	_ZNSt7__cxx1112basic_stringIcSt11char_traitsIcESaIcEED1Ev@PLT
	leaq	-592(%rbp), %rax
	movq	%rax, %rdi
	call	_ZNSt7__cxx1112basic_stringIcSt11char_traitsIcESaIcEED1Ev@PLT
	jmp	.L311
.L310:
	movl	-1384(%rbp), %eax
	movslq	%eax, %rdx
	leaq	-1008(%rbp), %rax
	movq	%rdx, %rsi
	movq	%rax, %rdi
	call	_ZNSt6vectorINSt7__cxx1112basic_stringIcSt11char_traitsIcESaIcEEESaIS5_EEixEm
	leaq	.LC22(%rip), %rsi
	movq	%rax, %rdi
	call	_ZSteqIcSt11char_traitsIcESaIcEEbRKNSt7__cxx1112basic_stringIT_T0_T1_EEPKS5_
	testb	%al, %al
	je	.L312
	movl	-1388(%rbp), %eax
	movslq	%eax, %rdx
	movq	-1400(%rbp), %rax
	movq	%rdx, %rsi
	movq	%rax, %rdi
	call	_ZNSt6vectorIP10List_paramSaIS1_EEixEm
	movq	(%rax), %rdx
	movq	-1280(%rbp), %rax
	movsd	136(%rdx), %xmm0
	movsd	%xmm0, 72(%rax)
	movl	-1388(%rbp), %eax
	movslq	%eax, %rdx
	movq	-1400(%rbp), %rax
	movq	%rdx, %rsi
	movq	%rax, %rdi
	call	_ZNSt6vectorIP10List_paramSaIS1_EEixEm
	movq	(%rax), %rax
	movq	136(%rax), %rdx
	leaq	-592(%rbp), %rax
	movq	%rdx, %xmm0
	movq	%rax, %rdi
.LEHB117:
	call	_ZNSt7__cxx119to_stringEd
.LEHE117:
	leaq	-560(%rbp), %rax
	leaq	-592(%rbp), %rdx
	leaq	.LC23(%rip), %rsi
	movq	%rax, %rdi
.LEHB118:
	call	_ZStplIcSt11char_traitsIcESaIcEENSt7__cxx1112basic_stringIT_T0_T1_EEPKS5_OS8_
.LEHE118:
	leaq	-560(%rbp), %rdx
	leaq	-656(%rbp), %rax
	movq	%rdx, %rsi
	movq	%rax, %rdi
.LEHB119:
	call	_ZNSt7__cxx1112basic_stringIcSt11char_traitsIcESaIcEEpLERKS4_@PLT
.LEHE119:
	leaq	-560(%rbp), %rax
	movq	%rax, %rdi
	call	_ZNSt7__cxx1112basic_stringIcSt11char_traitsIcESaIcEED1Ev@PLT
	leaq	-592(%rbp), %rax
	movq	%rax, %rdi
	call	_ZNSt7__cxx1112basic_stringIcSt11char_traitsIcESaIcEED1Ev@PLT
	jmp	.L311
.L312:
	movl	-1384(%rbp), %eax
	movslq	%eax, %rdx
	leaq	-1008(%rbp), %rax
	movq	%rdx, %rsi
	movq	%rax, %rdi
	call	_ZNSt6vectorINSt7__cxx1112basic_stringIcSt11char_traitsIcESaIcEEESaIS5_EEixEm
	leaq	.LC24(%rip), %rsi
	movq	%rax, %rdi
	call	_ZSteqIcSt11char_traitsIcESaIcEEbRKNSt7__cxx1112basic_stringIT_T0_T1_EEPKS5_
	testb	%al, %al
	je	.L313
	movl	-1388(%rbp), %eax
	movslq	%eax, %rdx
	movq	-1400(%rbp), %rax
	movq	%rdx, %rsi
	movq	%rax, %rdi
	call	_ZNSt6vectorIP10List_paramSaIS1_EEixEm
	movq	(%rax), %rax
	movl	144(%rax), %edx
	movq	-1280(%rbp), %rax
	imull	$86400, %edx, %edx
	movl	%edx, 100(%rax)
	movl	-1388(%rbp), %eax
	movslq	%eax, %rdx
	movq	-1400(%rbp), %rax
	movq	%rdx, %rsi
	movq	%rax, %rdi
	call	_ZNSt6vectorIP10List_paramSaIS1_EEixEm
	movq	(%rax), %rax
	movl	144(%rax), %edx
	leaq	-592(%rbp), %rax
	movl	%edx, %esi
	movq	%rax, %rdi
.LEHB120:
	call	_ZNSt7__cxx119to_stringEi
.LEHE120:
	leaq	-560(%rbp), %rax
	leaq	-592(%rbp), %rdx
	leaq	.LC25(%rip), %rsi
	movq	%rax, %rdi
.LEHB121:
	call	_ZStplIcSt11char_traitsIcESaIcEENSt7__cxx1112basic_stringIT_T0_T1_EEPKS5_OS8_
.LEHE121:
	leaq	-560(%rbp), %rdx
	leaq	-656(%rbp), %rax
	movq	%rdx, %rsi
	movq	%rax, %rdi
.LEHB122:
	call	_ZNSt7__cxx1112basic_stringIcSt11char_traitsIcESaIcEEpLERKS4_@PLT
.LEHE122:
	leaq	-560(%rbp), %rax
	movq	%rax, %rdi
	call	_ZNSt7__cxx1112basic_stringIcSt11char_traitsIcESaIcEED1Ev@PLT
	leaq	-592(%rbp), %rax
	movq	%rax, %rdi
	call	_ZNSt7__cxx1112basic_stringIcSt11char_traitsIcESaIcEED1Ev@PLT
	jmp	.L311
.L313:
	movl	-1384(%rbp), %eax
	movslq	%eax, %rdx
	leaq	-1008(%rbp), %rax
	movq	%rdx, %rsi
	movq	%rax, %rdi
	call	_ZNSt6vectorINSt7__cxx1112basic_stringIcSt11char_traitsIcESaIcEEESaIS5_EEixEm
	leaq	.LC26(%rip), %rsi
	movq	%rax, %rdi
	call	_ZSteqIcSt11char_traitsIcESaIcEEbRKNSt7__cxx1112basic_stringIT_T0_T1_EEPKS5_
	testb	%al, %al
	je	.L314
	movl	-1388(%rbp), %eax
	movslq	%eax, %rdx
	movq	-1400(%rbp), %rax
	movq	%rdx, %rsi
	movq	%rax, %rdi
	call	_ZNSt6vectorIP10List_paramSaIS1_EEixEm
	movq	(%rax), %rax
	movsd	152(%rax), %xmm0
	movq	-1280(%rbp), %rax
	cvttsd2sil	%xmm0, %edx
	movl	%edx, 104(%rax)
	movl	-1388(%rbp), %eax
	movslq	%eax, %rdx
	movq	-1400(%rbp), %rax
	movq	%rdx, %rsi
	movq	%rax, %rdi
	call	_ZNSt6vectorIP10List_paramSaIS1_EEixEm
	movq	(%rax), %rax
	movq	152(%rax), %rdx
	leaq	-592(%rbp), %rax
	movq	%rdx, %xmm0
	movq	%rax, %rdi
.LEHB123:
	call	_ZNSt7__cxx119to_stringEd
.LEHE123:
	leaq	-560(%rbp), %rax
	leaq	-592(%rbp), %rdx
	leaq	.LC27(%rip), %rsi
	movq	%rax, %rdi
.LEHB124:
	call	_ZStplIcSt11char_traitsIcESaIcEENSt7__cxx1112basic_stringIT_T0_T1_EEPKS5_OS8_
.LEHE124:
	leaq	-560(%rbp), %rdx
	leaq	-656(%rbp), %rax
	movq	%rdx, %rsi
	movq	%rax, %rdi
.LEHB125:
	call	_ZNSt7__cxx1112basic_stringIcSt11char_traitsIcESaIcEEpLERKS4_@PLT
.LEHE125:
	leaq	-560(%rbp), %rax
	movq	%rax, %rdi
	call	_ZNSt7__cxx1112basic_stringIcSt11char_traitsIcESaIcEED1Ev@PLT
	leaq	-592(%rbp), %rax
	movq	%rax, %rdi
	call	_ZNSt7__cxx1112basic_stringIcSt11char_traitsIcESaIcEED1Ev@PLT
	jmp	.L311
.L314:
	movl	-1384(%rbp), %eax
	movslq	%eax, %rdx
	leaq	-1008(%rbp), %rax
	movq	%rdx, %rsi
	movq	%rax, %rdi
	call	_ZNSt6vectorINSt7__cxx1112basic_stringIcSt11char_traitsIcESaIcEEESaIS5_EEixEm
	leaq	.LC28(%rip), %rsi
	movq	%rax, %rdi
	call	_ZSteqIcSt11char_traitsIcESaIcEEbRKNSt7__cxx1112basic_stringIT_T0_T1_EEPKS5_
	testb	%al, %al
	je	.L315
	movl	-1388(%rbp), %eax
	movslq	%eax, %rdx
	movq	-1400(%rbp), %rax
	movq	%rdx, %rsi
	movq	%rax, %rdi
	call	_ZNSt6vectorIP10List_paramSaIS1_EEixEm
	movq	(%rax), %rdx
	movq	-1280(%rbp), %rax
	movsd	160(%rdx), %xmm0
	movsd	%xmm0, 80(%rax)
	movl	-1388(%rbp), %eax
	movslq	%eax, %rdx
	movq	-1400(%rbp), %rax
	movq	%rdx, %rsi
	movq	%rax, %rdi
	call	_ZNSt6vectorIP10List_paramSaIS1_EEixEm
	movq	(%rax), %rax
	movq	160(%rax), %rdx
	leaq	-592(%rbp), %rax
	movq	%rdx, %xmm0
	movq	%rax, %rdi
.LEHB126:
	call	_ZNSt7__cxx119to_stringEd
.LEHE126:
	leaq	-560(%rbp), %rax
	leaq	-592(%rbp), %rdx
	leaq	.LC29(%rip), %rsi
	movq	%rax, %rdi
.LEHB127:
	call	_ZStplIcSt11char_traitsIcESaIcEENSt7__cxx1112basic_stringIT_T0_T1_EEPKS5_OS8_
.LEHE127:
	leaq	-560(%rbp), %rdx
	leaq	-656(%rbp), %rax
	movq	%rdx, %rsi
	movq	%rax, %rdi
.LEHB128:
	call	_ZNSt7__cxx1112basic_stringIcSt11char_traitsIcESaIcEEpLERKS4_@PLT
.LEHE128:
	leaq	-560(%rbp), %rax
	movq	%rax, %rdi
	call	_ZNSt7__cxx1112basic_stringIcSt11char_traitsIcESaIcEED1Ev@PLT
	leaq	-592(%rbp), %rax
	movq	%rax, %rdi
	call	_ZNSt7__cxx1112basic_stringIcSt11char_traitsIcESaIcEED1Ev@PLT
	jmp	.L311
.L315:
	movl	-1384(%rbp), %eax
	movslq	%eax, %rdx
	leaq	-1008(%rbp), %rax
	movq	%rdx, %rsi
	movq	%rax, %rdi
	call	_ZNSt6vectorINSt7__cxx1112basic_stringIcSt11char_traitsIcESaIcEEESaIS5_EEixEm
	leaq	.LC30(%rip), %rsi
	movq	%rax, %rdi
	call	_ZSteqIcSt11char_traitsIcESaIcEEbRKNSt7__cxx1112basic_stringIT_T0_T1_EEPKS5_
	testb	%al, %al
	je	.L311
	movl	-1388(%rbp), %eax
	movslq	%eax, %rdx
	movq	-1400(%rbp), %rax
	movq	%rdx, %rsi
	movq	%rax, %rdi
	call	_ZNSt6vectorIP10List_paramSaIS1_EEixEm
	movq	(%rax), %rdx
	movq	-1280(%rbp), %rax
	movsd	168(%rdx), %xmm0
	movsd	%xmm0, 64(%rax)
	movl	-1388(%rbp), %eax
	movslq	%eax, %rdx
	movq	-1400(%rbp), %rax
	movq	%rdx, %rsi
	movq	%rax, %rdi
	call	_ZNSt6vectorIP10List_paramSaIS1_EEixEm
	movq	(%rax), %rax
	movq	168(%rax), %rdx
	leaq	-592(%rbp), %rax
	movq	%rdx, %xmm0
	movq	%rax, %rdi
.LEHB129:
	call	_ZNSt7__cxx119to_stringEd
.LEHE129:
	leaq	-560(%rbp), %rax
	leaq	-592(%rbp), %rdx
	leaq	.LC31(%rip), %rsi
	movq	%rax, %rdi
.LEHB130:
	call	_ZStplIcSt11char_traitsIcESaIcEENSt7__cxx1112basic_stringIT_T0_T1_EEPKS5_OS8_
.LEHE130:
	leaq	-560(%rbp), %rdx
	leaq	-656(%rbp), %rax
	movq	%rdx, %rsi
	movq	%rax, %rdi
.LEHB131:
	call	_ZNSt7__cxx1112basic_stringIcSt11char_traitsIcESaIcEEpLERKS4_@PLT
.LEHE131:
	leaq	-560(%rbp), %rax
	movq	%rax, %rdi
	call	_ZNSt7__cxx1112basic_stringIcSt11char_traitsIcESaIcEED1Ev@PLT
	leaq	-592(%rbp), %rax
	movq	%rax, %rdi
	call	_ZNSt7__cxx1112basic_stringIcSt11char_traitsIcESaIcEED1Ev@PLT
.L311:
	addl	$1, -1384(%rbp)
	jmp	.L316
.L309:
	leaq	-624(%rbp), %rax
	leaq	-656(%rbp), %rdx
	leaq	-720(%rbp), %rcx
	movq	%rcx, %rsi
	movq	%rax, %rdi
.LEHB132:
	call	_ZStplIcSt11char_traitsIcESaIcEENSt7__cxx1112basic_stringIT_T0_T1_EERKS8_SA_
	movq	-1280(%rbp), %rax
	leaq	32(%rax), %rdx
	leaq	-624(%rbp), %rax
	movq	%rax, %rsi
	movq	%rdx, %rdi
	call	_ZNSt7__cxx1112basic_stringIcSt11char_traitsIcESaIcEEaSEOS4_@PLT
	leaq	-624(%rbp), %rax
	movq	%rax, %rdi
	call	_ZNSt7__cxx1112basic_stringIcSt11char_traitsIcESaIcEED1Ev@PLT
	leaq	-1280(%rbp), %rdx
	leaq	-1344(%rbp), %rax
	movq	%rdx, %rsi
	movq	%rax, %rdi
	call	_ZNSt6vectorIP11GraphRecsysSaIS1_EE9push_backERKS1_
.LEHE132:
	leaq	-656(%rbp), %rax
	movq	%rax, %rdi
	call	_ZNSt7__cxx1112basic_stringIcSt11char_traitsIcESaIcEED1Ev@PLT
	leaq	-1008(%rbp), %rax
	movq	%rax, %rdi
	call	_ZNSt6vectorINSt7__cxx1112basic_stringIcSt11char_traitsIcESaIcEEESaIS5_EED1Ev
	leaq	-1056(%rbp), %rax
	movq	%rax, %rdi
	call	_ZNSt6vectorIiSaIiEED1Ev
	leaq	-720(%rbp), %rax
	movq	%rax, %rdi
	call	_ZNSt7__cxx1112basic_stringIcSt11char_traitsIcESaIcEED1Ev@PLT
	addl	$1, -1388(%rbp)
	jmp	.L317
.L308:
	movl	$0, %edi
	call	time@PLT
	movl	%eax, -1372(%rbp)
	leaq	-1008(%rbp), %rax
	movq	%rax, %rdi
	call	_ZNSaIcEC1Ev@PLT
	leaq	-1008(%rbp), %rdx
	leaq	-848(%rbp), %rax
	leaq	.LC32(%rip), %rsi
	movq	%rax, %rdi
.LEHB133:
	call	_ZNSt7__cxx1112basic_stringIcSt11char_traitsIcESaIcEEC1EPKcRKS3_@PLT
.LEHE133:
	leaq	-1008(%rbp), %rax
	movq	%rax, %rdi
	call	_ZNSaIcED1Ev@PLT
	leaq	-560(%rbp), %rax
	movl	-1372(%rbp), %edx
	movl	%edx, %esi
	movq	%rax, %rdi
.LEHB134:
	call	_ZNSt7__cxx119to_stringEi
.LEHE134:
	leaq	-592(%rbp), %rax
	leaq	-848(%rbp), %rcx
	leaq	.LC19(%rip), %rdx
	movq	%rcx, %rsi
	movq	%rax, %rdi
.LEHB135:
	call	_ZStplIcSt11char_traitsIcESaIcEENSt7__cxx1112basic_stringIT_T0_T1_EERKS8_PKS5_
.LEHE135:
	leaq	-816(%rbp), %rax
	leaq	-560(%rbp), %rdx
	leaq	-592(%rbp), %rcx
	movq	%rcx, %rsi
	movq	%rax, %rdi
.LEHB136:
	call	_ZStplIcSt11char_traitsIcESaIcEENSt7__cxx1112basic_stringIT_T0_T1_EEOS8_S9_
.LEHE136:
	leaq	-592(%rbp), %rax
	movq	%rax, %rdi
	call	_ZNSt7__cxx1112basic_stringIcSt11char_traitsIcESaIcEED1Ev@PLT
	leaq	-560(%rbp), %rax
	movq	%rax, %rdi
	call	_ZNSt7__cxx1112basic_stringIcSt11char_traitsIcESaIcEED1Ev@PLT
	leaq	.LC33(%rip), %rsi
	leaq	_ZSt4cout(%rip), %rdi
.LEHB137:
	call	_ZStlsISt11char_traitsIcEERSt13basic_ostreamIcT_ES5_PKc@PLT
	movq	%rax, %rdx
	leaq	-816(%rbp), %rax
	movq	%rax, %rsi
	movq	%rdx, %rdi
	call	_ZStlsIcSt11char_traitsIcESaIcEERSt13basic_ostreamIT_T0_ES7_RKNSt7__cxx1112basic_stringIS4_S5_T1_EE@PLT
	movq	%rax, %rdx
	movq	_ZSt4endlIcSt11char_traitsIcEERSt13basic_ostreamIT_T0_ES6_@GOTPCREL(%rip), %rax
	movq	%rax, %rsi
	movq	%rdx, %rdi
	call	_ZNSolsEPFRSoS_E@PLT
	movq	-1416(%rbp), %rdx
	leaq	-1056(%rbp), %rax
	movq	%rdx, %rsi
	movq	%rax, %rdi
	call	_ZNSt6vectorIS_IdSaIdEESaIS1_EEC1ERKS3_
.LEHE137:
	leaq	-1344(%rbp), %rdx
	leaq	-1280(%rbp), %rax
	movq	%rdx, %rsi
	movq	%rax, %rdi
.LEHB138:
	call	_ZNSt6vectorIP11GraphRecsysSaIS1_EEC1ERKS3_
.LEHE138:
	movq	-1408(%rbp), %rdx
	leaq	-1312(%rbp), %rax
	movq	%rdx, %rsi
	movq	%rax, %rdi
.LEHB139:
	call	_ZNSt6vectorIS_IdSaIdEESaIS1_EEC1ERKS3_
.LEHE139:
	movq	.LC34(%rip), %rdi
	leaq	-1056(%rbp), %r8
	leaq	-1280(%rbp), %rcx
	movl	-1376(%rbp), %edx
	leaq	-1312(%rbp), %rsi
	leaq	-1008(%rbp), %rax
	movq	%rdi, %xmm0
	movq	%rax, %rdi
.LEHB140:
	call	_ZN6ExpgenC1ESt6vectorIS0_IdSaIdEESaIS2_EEiS0_IP11GraphRecsysSaIS6_EES4_d
.LEHE140:
	leaq	-1312(%rbp), %rax
	movq	%rax, %rdi
	call	_ZNSt6vectorIS_IdSaIdEESaIS1_EED1Ev
	leaq	-1280(%rbp), %rax
	movq	%rax, %rdi
	call	_ZNSt6vectorIP11GraphRecsysSaIS1_EED1Ev
	leaq	-1056(%rbp), %rax
	movq	%rax, %rdi
	call	_ZNSt6vectorIS_IdSaIdEESaIS1_EED1Ev
	leaq	-1008(%rbp), %rax
	movq	%rax, %rdi
.LEHB141:
	call	_ZN6Expgen3runEv
	leaq	-1056(%rbp), %rax
	leaq	-1008(%rbp), %rdx
	movq	%rdx, %rsi
	movq	%rax, %rdi
	call	_ZN6Expgen15get_exp_resultsB5cxx11Ev
.LEHE141:
	leaq	-1280(%rbp), %rax
	movq	%rax, %rdi
	call	_ZNSaIcEC1Ev@PLT
	call	get_current_dir_name@PLT
	movq	%rax, %rcx
	leaq	-1280(%rbp), %rdx
	leaq	-784(%rbp), %rax
	movq	%rcx, %rsi
	movq	%rax, %rdi
.LEHB142:
	call	_ZNSt7__cxx1112basic_stringIcSt11char_traitsIcESaIcEEC1EPKcRKS3_@PLT
.LEHE142:
	leaq	-1280(%rbp), %rax
	movq	%rax, %rdi
	call	_ZNSaIcED1Ev@PLT
	leaq	-592(%rbp), %rax
	movl	-1372(%rbp), %edx
	movl	%edx, %esi
	movq	%rax, %rdi
.LEHB143:
	call	_ZNSt7__cxx119to_stringEi
.LEHE143:
	leaq	-688(%rbp), %rax
	leaq	-784(%rbp), %rcx
	leaq	.LC35(%rip), %rdx
	movq	%rcx, %rsi
	movq	%rax, %rdi
.LEHB144:
	call	_ZStplIcSt11char_traitsIcESaIcEENSt7__cxx1112basic_stringIT_T0_T1_EERKS8_PKS5_
.LEHE144:
	leaq	-656(%rbp), %rax
	leaq	-848(%rbp), %rdx
	leaq	-688(%rbp), %rcx
	movq	%rcx, %rsi
	movq	%rax, %rdi
.LEHB145:
	call	_ZStplIcSt11char_traitsIcESaIcEENSt7__cxx1112basic_stringIT_T0_T1_EEOS8_RKS8_
.LEHE145:
	leaq	-624(%rbp), %rax
	leaq	-656(%rbp), %rcx
	leaq	.LC36(%rip), %rdx
	movq	%rcx, %rsi
	movq	%rax, %rdi
.LEHB146:
	call	_ZStplIcSt11char_traitsIcESaIcEENSt7__cxx1112basic_stringIT_T0_T1_EEOS8_PKS5_
.LEHE146:
	leaq	-560(%rbp), %rax
	leaq	-592(%rbp), %rdx
	leaq	-624(%rbp), %rcx
	movq	%rcx, %rsi
	movq	%rax, %rdi
.LEHB147:
	call	_ZStplIcSt11char_traitsIcESaIcEENSt7__cxx1112basic_stringIT_T0_T1_EEOS8_S9_
.LEHE147:
	leaq	-752(%rbp), %rax
	leaq	-560(%rbp), %rcx
	leaq	.LC37(%rip), %rdx
	movq	%rcx, %rsi
	movq	%rax, %rdi
.LEHB148:
	call	_ZStplIcSt11char_traitsIcESaIcEENSt7__cxx1112basic_stringIT_T0_T1_EEOS8_PKS5_
.LEHE148:
	leaq	-560(%rbp), %rax
	movq	%rax, %rdi
	call	_ZNSt7__cxx1112basic_stringIcSt11char_traitsIcESaIcEED1Ev@PLT
	leaq	-624(%rbp), %rax
	movq	%rax, %rdi
	call	_ZNSt7__cxx1112basic_stringIcSt11char_traitsIcESaIcEED1Ev@PLT
	leaq	-656(%rbp), %rax
	movq	%rax, %rdi
	call	_ZNSt7__cxx1112basic_stringIcSt11char_traitsIcESaIcEED1Ev@PLT
	leaq	-688(%rbp), %rax
	movq	%rax, %rdi
	call	_ZNSt7__cxx1112basic_stringIcSt11char_traitsIcESaIcEED1Ev@PLT
	leaq	-592(%rbp), %rax
	movq	%rax, %rdi
	call	_ZNSt7__cxx1112basic_stringIcSt11char_traitsIcESaIcEED1Ev@PLT
	leaq	-752(%rbp), %rax
	movq	%rax, %rdi
	call	_ZNKSt7__cxx1112basic_stringIcSt11char_traitsIcESaIcEE5c_strEv@PLT
	movq	%rax, %rcx
	leaq	-560(%rbp), %rax
	movl	$1, %edx
	movq	%rcx, %rsi
	movq	%rax, %rdi
.LEHB149:
	call	_ZNSt14basic_ofstreamIcSt11char_traitsIcEEC1EPKcSt13_Ios_Openmode@PLT
.LEHE149:
	leaq	-1056(%rbp), %rax
	movq	%rax, %rdi
	call	_ZNKSt3mapINSt7__cxx1112basic_stringIcSt11char_traitsIcESaIcEEES_IS5_dSt4lessIS5_ESaISt4pairIKS5_dEEES7_SaIS8_IS9_SC_EEE6cbeginEv
	movq	%rax, -1312(%rbp)
.L321:
	leaq	-1056(%rbp), %rax
	movq	%rax, %rdi
	call	_ZNKSt3mapINSt7__cxx1112basic_stringIcSt11char_traitsIcESaIcEEES_IS5_dSt4lessIS5_ESaISt4pairIKS5_dEEES7_SaIS8_IS9_SC_EEE4cendEv
	movq	%rax, -1280(%rbp)
	leaq	-1280(%rbp), %rdx
	leaq	-1312(%rbp), %rax
	movq	%rdx, %rsi
	movq	%rax, %rdi
	call	_ZStneRKSt23_Rb_tree_const_iteratorISt4pairIKNSt7__cxx1112basic_stringIcSt11char_traitsIcESaIcEEESt3mapIS6_dSt4lessIS6_ESaIS0_IS7_dEEEEESH_
	testb	%al, %al
	je	.L318
	leaq	-1312(%rbp), %rax
	movq	%rax, %rdi
	call	_ZNKSt23_Rb_tree_const_iteratorISt4pairIKNSt7__cxx1112basic_stringIcSt11char_traitsIcESaIcEEESt3mapIS6_dSt4lessIS6_ESaIS0_IS7_dEEEEEptEv
	movq	%rax, %rdx
	leaq	-624(%rbp), %rax
	leaq	.LC38(%rip), %rsi
	movq	%rax, %rdi
.LEHB150:
	call	_ZStplIcSt11char_traitsIcESaIcEENSt7__cxx1112basic_stringIT_T0_T1_EEPKS5_RKS8_
.LEHE150:
	leaq	-720(%rbp), %rax
	leaq	-624(%rbp), %rcx
	leaq	.LC39(%rip), %rdx
	movq	%rcx, %rsi
	movq	%rax, %rdi
.LEHB151:
	call	_ZStplIcSt11char_traitsIcESaIcEENSt7__cxx1112basic_stringIT_T0_T1_EEOS8_PKS5_
.LEHE151:
	leaq	-624(%rbp), %rax
	movq	%rax, %rdi
	call	_ZNSt7__cxx1112basic_stringIcSt11char_traitsIcESaIcEED1Ev@PLT
	leaq	-720(%rbp), %rax
	movq	%rax, %rdi
	call	_ZNKSt7__cxx1112basic_stringIcSt11char_traitsIcESaIcEE5c_strEv@PLT
	movq	%rax, %rdx
	leaq	-560(%rbp), %rax
	movq	%rdx, %rsi
	movq	%rax, %rdi
.LEHB152:
	call	_ZStlsISt11char_traitsIcEERSt13basic_ostreamIcT_ES5_PKc@PLT
	movq	%rax, %rdx
	movq	_ZSt4endlIcSt11char_traitsIcEERSt13basic_ostreamIT_T0_ES6_@GOTPCREL(%rip), %rax
	movq	%rax, %rsi
	movq	%rdx, %rdi
	call	_ZNSolsEPFRSoS_E@PLT
	movl	$0, -1380(%rbp)
.L320:
	movl	-1380(%rbp), %eax
	movslq	%eax, %rbx
	movq	-1424(%rbp), %rax
	movq	%rax, %rdi
	call	_ZNKSt6vectorINSt7__cxx1112basic_stringIcSt11char_traitsIcESaIcEEESaIS5_EE4sizeEv
	cmpq	%rax, %rbx
	setb	%al
	testb	%al, %al
	je	.L319
	movl	-1380(%rbp), %eax
	movslq	%eax, %rdx
	movq	-1424(%rbp), %rax
	movq	%rdx, %rsi
	movq	%rax, %rdi
	call	_ZNSt6vectorINSt7__cxx1112basic_stringIcSt11char_traitsIcESaIcEEESaIS5_EEixEm
	movq	%rax, %rbx
	leaq	-1312(%rbp), %rax
	movq	%rax, %rdi
	call	_ZNKSt23_Rb_tree_const_iteratorISt4pairIKNSt7__cxx1112basic_stringIcSt11char_traitsIcESaIcEEESt3mapIS6_dSt4lessIS6_ESaIS0_IS7_dEEEEEptEv
	movq	%rax, %rdx
	leaq	-1056(%rbp), %rax
	movq	%rdx, %rsi
	movq	%rax, %rdi
	call	_ZNSt3mapINSt7__cxx1112basic_stringIcSt11char_traitsIcESaIcEEES_IS5_dSt4lessIS5_ESaISt4pairIKS5_dEEES7_SaIS8_IS9_SC_EEEixERS9_
	movq	%rbx, %rsi
	movq	%rax, %rdi
	call	_ZNSt3mapINSt7__cxx1112basic_stringIcSt11char_traitsIcESaIcEEEdSt4lessIS5_ESaISt4pairIKS5_dEEEixERS9_
	movq	(%rax), %rdx
	leaq	-656(%rbp), %rax
	movq	%rdx, %xmm0
	movq	%rax, %rdi
	call	_ZNSt7__cxx119to_stringEd
.LEHE152:
	movl	-1380(%rbp), %eax
	movslq	%eax, %rdx
	movq	-1424(%rbp), %rax
	movq	%rdx, %rsi
	movq	%rax, %rdi
	call	_ZNSt6vectorINSt7__cxx1112basic_stringIcSt11char_traitsIcESaIcEEESaIS5_EEixEm
	movq	%rax, %rcx
	leaq	-688(%rbp), %rax
	leaq	.LC40(%rip), %rdx
	movq	%rcx, %rsi
	movq	%rax, %rdi
.LEHB153:
	call	_ZStplIcSt11char_traitsIcESaIcEENSt7__cxx1112basic_stringIT_T0_T1_EERKS8_PKS5_
.LEHE153:
	leaq	-624(%rbp), %rax
	leaq	-656(%rbp), %rdx
	leaq	-688(%rbp), %rcx
	movq	%rcx, %rsi
	movq	%rax, %rdi
.LEHB154:
	call	_ZStplIcSt11char_traitsIcESaIcEENSt7__cxx1112basic_stringIT_T0_T1_EEOS8_S9_
.LEHE154:
	leaq	-592(%rbp), %rax
	leaq	-624(%rbp), %rcx
	leaq	.LC39(%rip), %rdx
	movq	%rcx, %rsi
	movq	%rax, %rdi
.LEHB155:
	call	_ZStplIcSt11char_traitsIcESaIcEENSt7__cxx1112basic_stringIT_T0_T1_EEOS8_PKS5_
.LEHE155:
	leaq	-592(%rbp), %rdx
	leaq	-720(%rbp), %rax
	movq	%rdx, %rsi
	movq	%rax, %rdi
	call	_ZNSt7__cxx1112basic_stringIcSt11char_traitsIcESaIcEEaSEOS4_@PLT
	leaq	-592(%rbp), %rax
	movq	%rax, %rdi
	call	_ZNSt7__cxx1112basic_stringIcSt11char_traitsIcESaIcEED1Ev@PLT
	leaq	-624(%rbp), %rax
	movq	%rax, %rdi
	call	_ZNSt7__cxx1112basic_stringIcSt11char_traitsIcESaIcEED1Ev@PLT
	leaq	-688(%rbp), %rax
	movq	%rax, %rdi
	call	_ZNSt7__cxx1112basic_stringIcSt11char_traitsIcESaIcEED1Ev@PLT
	leaq	-656(%rbp), %rax
	movq	%rax, %rdi
	call	_ZNSt7__cxx1112basic_stringIcSt11char_traitsIcESaIcEED1Ev@PLT
	leaq	-720(%rbp), %rax
	movq	%rax, %rdi
	call	_ZNKSt7__cxx1112basic_stringIcSt11char_traitsIcESaIcEE5c_strEv@PLT
	movq	%rax, %rdx
	leaq	-560(%rbp), %rax
	movq	%rdx, %rsi
	movq	%rax, %rdi
.LEHB156:
	call	_ZStlsISt11char_traitsIcEERSt13basic_ostreamIcT_ES5_PKc@PLT
	movq	%rax, %rdx
	movq	_ZSt4endlIcSt11char_traitsIcEERSt13basic_ostreamIT_T0_ES6_@GOTPCREL(%rip), %rax
	movq	%rax, %rsi
	movq	%rdx, %rdi
	call	_ZNSolsEPFRSoS_E@PLT
.LEHE156:
	addl	$1, -1380(%rbp)
	jmp	.L320
.L319:
	leaq	-720(%rbp), %rax
	movq	%rax, %rdi
	call	_ZNSt7__cxx1112basic_stringIcSt11char_traitsIcESaIcEED1Ev@PLT
	leaq	-1312(%rbp), %rax
	movq	%rax, %rdi
	call	_ZNSt23_Rb_tree_const_iteratorISt4pairIKNSt7__cxx1112basic_stringIcSt11char_traitsIcESaIcEEESt3mapIS6_dSt4lessIS6_ESaIS0_IS7_dEEEEEppEv
	jmp	.L321
.L318:
	leaq	.LC41(%rip), %rsi
	leaq	_ZSt4cout(%rip), %rdi
.LEHB157:
	call	_ZStlsISt11char_traitsIcEERSt13basic_ostreamIcT_ES5_PKc@PLT
	movq	%rax, %rdx
	leaq	-816(%rbp), %rax
	movq	%rax, %rsi
	movq	%rdx, %rdi
	call	_ZStlsIcSt11char_traitsIcESaIcEERSt13basic_ostreamIT_T0_ES7_RKNSt7__cxx1112basic_stringIS4_S5_T1_EE@PLT
	movq	%rax, %rdx
	movq	_ZSt4endlIcSt11char_traitsIcEERSt13basic_ostreamIT_T0_ES6_@GOTPCREL(%rip), %rax
	movq	%rax, %rsi
	movq	%rdx, %rdi
	call	_ZNSolsEPFRSoS_E@PLT
.LEHE157:
	leaq	-560(%rbp), %rax
	movq	%rax, %rdi
	call	_ZNSt14basic_ofstreamIcSt11char_traitsIcEED1Ev@PLT
	leaq	-752(%rbp), %rax
	movq	%rax, %rdi
	call	_ZNSt7__cxx1112basic_stringIcSt11char_traitsIcESaIcEED1Ev@PLT
	leaq	-784(%rbp), %rax
	movq	%rax, %rdi
	call	_ZNSt7__cxx1112basic_stringIcSt11char_traitsIcESaIcEED1Ev@PLT
	leaq	-1056(%rbp), %rax
	movq	%rax, %rdi
	call	_ZNSt3mapINSt7__cxx1112basic_stringIcSt11char_traitsIcESaIcEEES_IS5_dSt4lessIS5_ESaISt4pairIKS5_dEEES7_SaIS8_IS9_SC_EEED1Ev
	leaq	-1008(%rbp), %rax
	movq	%rax, %rdi
	call	_ZN6ExpgenD1Ev
	leaq	-816(%rbp), %rax
	movq	%rax, %rdi
	call	_ZNSt7__cxx1112basic_stringIcSt11char_traitsIcESaIcEED1Ev@PLT
	leaq	-848(%rbp), %rax
	movq	%rax, %rdi
	call	_ZNSt7__cxx1112basic_stringIcSt11char_traitsIcESaIcEED1Ev@PLT
	leaq	-1344(%rbp), %rax
	movq	%rax, %rdi
	call	_ZNSt6vectorIP11GraphRecsysSaIS1_EED1Ev
	leaq	-1104(%rbp), %rax
	movq	%rax, %rdi
	call	_ZNSt3mapINSt7__cxx1112basic_stringIcSt11char_traitsIcESaIcEEEiSt4lessIS5_ESaISt4pairIKS5_iEEED1Ev
	leaq	-1152(%rbp), %rax
	movq	%rax, %rdi
	call	_ZNSt3mapINSt7__cxx1112basic_stringIcSt11char_traitsIcESaIcEEEiSt4lessIS5_ESaISt4pairIKS5_iEEED1Ev
	leaq	-1200(%rbp), %rax
	movq	%rax, %rdi
	call	_ZNSt3mapINSt7__cxx1112basic_stringIcSt11char_traitsIcESaIcEEEiSt4lessIS5_ESaISt4pairIKS5_iEEED1Ev
	leaq	-1248(%rbp), %rax
	movq	%rax, %rdi
	call	_ZNSt3mapINSt7__cxx1112basic_stringIcSt11char_traitsIcESaIcEEEiSt4lessIS5_ESaISt4pairIKS5_iEEED1Ev
	nop
	movq	-40(%rbp), %rax
	xorq	%fs:40, %rax
	je	.L397
	jmp	.L469
.L399:
	endbr64
	movq	%rax, %rbx
	leaq	-560(%rbp), %rax
	movq	%rax, %rdi
	call	_ZNSt7__cxx1112basic_stringIcSt11char_traitsIcESaIcEED1Ev@PLT
	jmp	.L323
.L398:
	endbr64
	movq	%rax, %rbx
.L323:
	leaq	-1008(%rbp), %rax
	movq	%rax, %rdi
	call	_ZNSaIcED1Ev@PLT
	jmp	.L324
.L401:
	endbr64
	movq	%rax, %rbx
	leaq	-560(%rbp), %rax
	movq	%rax, %rdi
	call	_ZNSt7__cxx1112basic_stringIcSt11char_traitsIcESaIcEED1Ev@PLT
	jmp	.L326
.L400:
	endbr64
	movq	%rax, %rbx
.L326:
	leaq	-1008(%rbp), %rax
	movq	%rax, %rdi
	call	_ZNSaIcED1Ev@PLT
	jmp	.L324
.L403:
	endbr64
	movq	%rax, %rbx
	leaq	-560(%rbp), %rax
	movq	%rax, %rdi
	call	_ZNSt7__cxx1112basic_stringIcSt11char_traitsIcESaIcEED1Ev@PLT
	jmp	.L328
.L402:
	endbr64
	movq	%rax, %rbx
.L328:
	leaq	-1008(%rbp), %rax
	movq	%rax, %rdi
	call	_ZNSaIcED1Ev@PLT
	jmp	.L324
.L405:
	endbr64
	movq	%rax, %rbx
	leaq	-560(%rbp), %rax
	movq	%rax, %rdi
	call	_ZNSt7__cxx1112basic_stringIcSt11char_traitsIcESaIcEED1Ev@PLT
	jmp	.L330
.L404:
	endbr64
	movq	%rax, %rbx
.L330:
	leaq	-1008(%rbp), %rax
	movq	%rax, %rdi
	call	_ZNSaIcED1Ev@PLT
	jmp	.L324
.L407:
	endbr64
	movq	%rax, %rbx
	leaq	-560(%rbp), %rax
	movq	%rax, %rdi
	call	_ZNSt7__cxx1112basic_stringIcSt11char_traitsIcESaIcEED1Ev@PLT
	jmp	.L332
.L406:
	endbr64
	movq	%rax, %rbx
.L332:
	leaq	-1008(%rbp), %rax
	movq	%rax, %rdi
	call	_ZNSaIcED1Ev@PLT
	jmp	.L324
.L409:
	endbr64
	movq	%rax, %rbx
	leaq	-560(%rbp), %rax
	movq	%rax, %rdi
	call	_ZNSt7__cxx1112basic_stringIcSt11char_traitsIcESaIcEED1Ev@PLT
	jmp	.L334
.L408:
	endbr64
	movq	%rax, %rbx
.L334:
	leaq	-1008(%rbp), %rax
	movq	%rax, %rdi
	call	_ZNSaIcED1Ev@PLT
	jmp	.L324
.L411:
	endbr64
	movq	%rax, %rbx
	leaq	-560(%rbp), %rax
	movq	%rax, %rdi
	call	_ZNSt7__cxx1112basic_stringIcSt11char_traitsIcESaIcEED1Ev@PLT
	jmp	.L336
.L410:
	endbr64
	movq	%rax, %rbx
.L336:
	leaq	-1008(%rbp), %rax
	movq	%rax, %rdi
	call	_ZNSaIcED1Ev@PLT
	jmp	.L324
.L413:
	endbr64
	movq	%rax, %rbx
	leaq	-560(%rbp), %rax
	movq	%rax, %rdi
	call	_ZNSt7__cxx1112basic_stringIcSt11char_traitsIcESaIcEED1Ev@PLT
	jmp	.L338
.L412:
	endbr64
	movq	%rax, %rbx
.L338:
	leaq	-1008(%rbp), %rax
	movq	%rax, %rdi
	call	_ZNSaIcED1Ev@PLT
	jmp	.L324
.L415:
	endbr64
	movq	%rax, %rbx
	leaq	-560(%rbp), %rax
	movq	%rax, %rdi
	call	_ZNSt7__cxx1112basic_stringIcSt11char_traitsIcESaIcEED1Ev@PLT
	jmp	.L340
.L414:
	endbr64
	movq	%rax, %rbx
.L340:
	leaq	-1008(%rbp), %rax
	movq	%rax, %rdi
	call	_ZNSaIcED1Ev@PLT
	jmp	.L324
.L417:
	endbr64
	movq	%rax, %rbx
	leaq	-560(%rbp), %rax
	movq	%rax, %rdi
	call	_ZNSt7__cxx1112basic_stringIcSt11char_traitsIcESaIcEED1Ev@PLT
	jmp	.L342
.L416:
	endbr64
	movq	%rax, %rbx
.L342:
	leaq	-1008(%rbp), %rax
	movq	%rax, %rdi
	call	_ZNSaIcED1Ev@PLT
	jmp	.L324
.L419:
	endbr64
	movq	%rax, %rbx
	leaq	-560(%rbp), %rax
	movq	%rax, %rdi
	call	_ZNSt7__cxx1112basic_stringIcSt11char_traitsIcESaIcEED1Ev@PLT
	jmp	.L344
.L418:
	endbr64
	movq	%rax, %rbx
.L344:
	leaq	-1008(%rbp), %rax
	movq	%rax, %rdi
	call	_ZNSaIcED1Ev@PLT
	jmp	.L324
.L421:
	endbr64
	movq	%rax, %rbx
	leaq	-560(%rbp), %rax
	movq	%rax, %rdi
	call	_ZNSt7__cxx1112basic_stringIcSt11char_traitsIcESaIcEED1Ev@PLT
	jmp	.L346
.L420:
	endbr64
	movq	%rax, %rbx
.L346:
	leaq	-1008(%rbp), %rax
	movq	%rax, %rdi
	call	_ZNSaIcED1Ev@PLT
	jmp	.L324
.L426:
	endbr64
	movq	%rax, %rbx
	leaq	-560(%rbp), %rax
	movq	%rax, %rdi
	call	_ZNSt7__cxx1112basic_stringIcSt11char_traitsIcESaIcEED1Ev@PLT
	jmp	.L348
.L425:
	endbr64
	movq	%rax, %rbx
.L348:
	leaq	-592(%rbp), %rax
	movq	%rax, %rdi
	call	_ZNSt7__cxx1112basic_stringIcSt11char_traitsIcESaIcEED1Ev@PLT
	jmp	.L349
.L424:
	endbr64
	movq	%rax, %rbx
.L349:
	leaq	-624(%rbp), %rax
	movq	%rax, %rdi
	call	_ZNSt7__cxx1112basic_stringIcSt11char_traitsIcESaIcEED1Ev@PLT
	jmp	.L350
.L423:
	endbr64
	movq	%rax, %rbx
.L350:
	leaq	-656(%rbp), %rax
	movq	%rax, %rdi
	call	_ZNSt7__cxx1112basic_stringIcSt11char_traitsIcESaIcEED1Ev@PLT
	jmp	.L351
.L422:
	endbr64
	movq	%rax, %rbx
.L351:
	leaq	-688(%rbp), %rax
	movq	%rax, %rdi
	call	_ZNSt7__cxx1112basic_stringIcSt11char_traitsIcESaIcEED1Ev@PLT
	jmp	.L352
.L427:
	endbr64
	movq	%rax, %rbx
	leaq	-1280(%rbp), %rax
	movq	%rax, %rdi
	call	_ZNSaIiED1Ev
	jmp	.L354
.L429:
	endbr64
	movq	%rax, %rbx
	leaq	-1008(%rbp), %rax
	movq	%rax, %rdi
	call	_ZNSt6vectorIiSaIiEED1Ev
	jmp	.L356
.L430:
	endbr64
	movq	%rax, %rbx
	leaq	-1312(%rbp), %rax
	movq	%rax, %rdi
	call	_ZNSaIcED1Ev@PLT
	jmp	.L358
.L433:
	endbr64
	movq	%rax, %rbx
	leaq	-560(%rbp), %rax
	movq	%rax, %rdi
	call	_ZNSt7__cxx1112basic_stringIcSt11char_traitsIcESaIcEED1Ev@PLT
	jmp	.L360
.L432:
	endbr64
	movq	%rax, %rbx
.L360:
	leaq	-592(%rbp), %rax
	movq	%rax, %rdi
	call	_ZNSt7__cxx1112basic_stringIcSt11char_traitsIcESaIcEED1Ev@PLT
	jmp	.L361
.L435:
	endbr64
	movq	%rax, %rbx
	leaq	-560(%rbp), %rax
	movq	%rax, %rdi
	call	_ZNSt7__cxx1112basic_stringIcSt11char_traitsIcESaIcEED1Ev@PLT
	jmp	.L363
.L434:
	endbr64
	movq	%rax, %rbx
.L363:
	leaq	-592(%rbp), %rax
	movq	%rax, %rdi
	call	_ZNSt7__cxx1112basic_stringIcSt11char_traitsIcESaIcEED1Ev@PLT
	jmp	.L361
.L437:
	endbr64
	movq	%rax, %rbx
	leaq	-560(%rbp), %rax
	movq	%rax, %rdi
	call	_ZNSt7__cxx1112basic_stringIcSt11char_traitsIcESaIcEED1Ev@PLT
	jmp	.L365
.L436:
	endbr64
	movq	%rax, %rbx
.L365:
	leaq	-592(%rbp), %rax
	movq	%rax, %rdi
	call	_ZNSt7__cxx1112basic_stringIcSt11char_traitsIcESaIcEED1Ev@PLT
	jmp	.L361
.L439:
	endbr64
	movq	%rax, %rbx
	leaq	-560(%rbp), %rax
	movq	%rax, %rdi
	call	_ZNSt7__cxx1112basic_stringIcSt11char_traitsIcESaIcEED1Ev@PLT
	jmp	.L367
.L438:
	endbr64
	movq	%rax, %rbx
.L367:
	leaq	-592(%rbp), %rax
	movq	%rax, %rdi
	call	_ZNSt7__cxx1112basic_stringIcSt11char_traitsIcESaIcEED1Ev@PLT
	jmp	.L361
.L441:
	endbr64
	movq	%rax, %rbx
	leaq	-560(%rbp), %rax
	movq	%rax, %rdi
	call	_ZNSt7__cxx1112basic_stringIcSt11char_traitsIcESaIcEED1Ev@PLT
	jmp	.L369
.L440:
	endbr64
	movq	%rax, %rbx
.L369:
	leaq	-592(%rbp), %rax
	movq	%rax, %rdi
	call	_ZNSt7__cxx1112basic_stringIcSt11char_traitsIcESaIcEED1Ev@PLT
	jmp	.L361
.L443:
	endbr64
	movq	%rax, %rbx
	leaq	-560(%rbp), %rax
	movq	%rax, %rdi
	call	_ZNSt7__cxx1112basic_stringIcSt11char_traitsIcESaIcEED1Ev@PLT
	jmp	.L371
.L442:
	endbr64
	movq	%rax, %rbx
.L371:
	leaq	-592(%rbp), %rax
	movq	%rax, %rdi
	call	_ZNSt7__cxx1112basic_stringIcSt11char_traitsIcESaIcEED1Ev@PLT
	jmp	.L361
.L431:
	endbr64
	movq	%rax, %rbx
.L361:
	leaq	-656(%rbp), %rax
	movq	%rax, %rdi
	call	_ZNSt7__cxx1112basic_stringIcSt11char_traitsIcESaIcEED1Ev@PLT
.L358:
	leaq	-1008(%rbp), %rax
	movq	%rax, %rdi
	call	_ZNSt6vectorINSt7__cxx1112basic_stringIcSt11char_traitsIcESaIcEEESaIS5_EED1Ev
	jmp	.L356
.L428:
	endbr64
	movq	%rax, %rbx
.L356:
	leaq	-1056(%rbp), %rax
	movq	%rax, %rdi
	call	_ZNSt6vectorIiSaIiEED1Ev
.L354:
	leaq	-720(%rbp), %rax
	movq	%rax, %rdi
	call	_ZNSt7__cxx1112basic_stringIcSt11char_traitsIcESaIcEED1Ev@PLT
	jmp	.L352
.L445:
	endbr64
	movq	%rax, %rbx
	leaq	-1008(%rbp), %rax
	movq	%rax, %rdi
	call	_ZNSaIcED1Ev@PLT
	jmp	.L352
.L448:
	endbr64
	movq	%rax, %rbx
	leaq	-592(%rbp), %rax
	movq	%rax, %rdi
	call	_ZNSt7__cxx1112basic_stringIcSt11char_traitsIcESaIcEED1Ev@PLT
	jmp	.L374
.L447:
	endbr64
	movq	%rax, %rbx
.L374:
	leaq	-560(%rbp), %rax
	movq	%rax, %rdi
	call	_ZNSt7__cxx1112basic_stringIcSt11char_traitsIcESaIcEED1Ev@PLT
	jmp	.L375
.L452:
	endbr64
	movq	%rax, %rbx
	leaq	-1312(%rbp), %rax
	movq	%rax, %rdi
	call	_ZNSt6vectorIS_IdSaIdEESaIS1_EED1Ev
	jmp	.L377
.L451:
	endbr64
	movq	%rax, %rbx
.L377:
	leaq	-1280(%rbp), %rax
	movq	%rax, %rdi
	call	_ZNSt6vectorIP11GraphRecsysSaIS1_EED1Ev
	jmp	.L378
.L450:
	endbr64
	movq	%rax, %rbx
.L378:
	leaq	-1056(%rbp), %rax
	movq	%rax, %rdi
	call	_ZNSt6vectorIS_IdSaIdEESaIS1_EED1Ev
	jmp	.L379
.L454:
	endbr64
	movq	%rax, %rbx
	leaq	-1280(%rbp), %rax
	movq	%rax, %rdi
	call	_ZNSaIcED1Ev@PLT
	jmp	.L381
.L460:
	endbr64
	movq	%rax, %rbx
	leaq	-560(%rbp), %rax
	movq	%rax, %rdi
	call	_ZNSt7__cxx1112basic_stringIcSt11char_traitsIcESaIcEED1Ev@PLT
	jmp	.L383
.L459:
	endbr64
	movq	%rax, %rbx
.L383:
	leaq	-624(%rbp), %rax
	movq	%rax, %rdi
	call	_ZNSt7__cxx1112basic_stringIcSt11char_traitsIcESaIcEED1Ev@PLT
	jmp	.L384
.L458:
	endbr64
	movq	%rax, %rbx
.L384:
	leaq	-656(%rbp), %rax
	movq	%rax, %rdi
	call	_ZNSt7__cxx1112basic_stringIcSt11char_traitsIcESaIcEED1Ev@PLT
	jmp	.L385
.L457:
	endbr64
	movq	%rax, %rbx
.L385:
	leaq	-688(%rbp), %rax
	movq	%rax, %rdi
	call	_ZNSt7__cxx1112basic_stringIcSt11char_traitsIcESaIcEED1Ev@PLT
	jmp	.L386
.L456:
	endbr64
	movq	%rax, %rbx
.L386:
	leaq	-592(%rbp), %rax
	movq	%rax, %rdi
	call	_ZNSt7__cxx1112basic_stringIcSt11char_traitsIcESaIcEED1Ev@PLT
	jmp	.L387
.L463:
	endbr64
	movq	%rax, %rbx
	leaq	-624(%rbp), %rax
	movq	%rax, %rdi
	call	_ZNSt7__cxx1112basic_stringIcSt11char_traitsIcESaIcEED1Ev@PLT
	movq	%rbx, %rax
	jmp	.L389
.L467:
	endbr64
	movq	%rax, %rbx
	leaq	-624(%rbp), %rax
	movq	%rax, %rdi
	call	_ZNSt7__cxx1112basic_stringIcSt11char_traitsIcESaIcEED1Ev@PLT
	jmp	.L391
.L466:
	endbr64
	movq	%rax, %rbx
.L391:
	leaq	-688(%rbp), %rax
	movq	%rax, %rdi
	call	_ZNSt7__cxx1112basic_stringIcSt11char_traitsIcESaIcEED1Ev@PLT
	jmp	.L392
.L465:
	endbr64
	movq	%rax, %rbx
.L392:
	leaq	-656(%rbp), %rax
	movq	%rax, %rdi
	call	_ZNSt7__cxx1112basic_stringIcSt11char_traitsIcESaIcEED1Ev@PLT
	jmp	.L393
.L464:
	endbr64
	movq	%rax, %rbx
.L393:
	leaq	-720(%rbp), %rax
	movq	%rax, %rdi
	call	_ZNSt7__cxx1112basic_stringIcSt11char_traitsIcESaIcEED1Ev@PLT
	movq	%rbx, %rax
	jmp	.L389
.L462:
	endbr64
.L389:
	movq	%rax, %rbx
	jmp	.L394
.L468:
	endbr64
	movq	%rax, %rbx
.L394:
	leaq	-560(%rbp), %rax
	movq	%rax, %rdi
	call	_ZNSt14basic_ofstreamIcSt11char_traitsIcEED1Ev@PLT
	jmp	.L395
.L461:
	endbr64
	movq	%rax, %rbx
.L395:
	leaq	-752(%rbp), %rax
	movq	%rax, %rdi
	call	_ZNSt7__cxx1112basic_stringIcSt11char_traitsIcESaIcEED1Ev@PLT
	jmp	.L387
.L455:
	endbr64
	movq	%rax, %rbx
.L387:
	leaq	-784(%rbp), %rax
	movq	%rax, %rdi
	call	_ZNSt7__cxx1112basic_stringIcSt11char_traitsIcESaIcEED1Ev@PLT
.L381:
	leaq	-1056(%rbp), %rax
	movq	%rax, %rdi
	call	_ZNSt3mapINSt7__cxx1112basic_stringIcSt11char_traitsIcESaIcEEES_IS5_dSt4lessIS5_ESaISt4pairIKS5_dEEES7_SaIS8_IS9_SC_EEED1Ev
	jmp	.L396
.L453:
	endbr64
	movq	%rax, %rbx
.L396:
	leaq	-1008(%rbp), %rax
	movq	%rax, %rdi
	call	_ZN6ExpgenD1Ev
	jmp	.L379
.L449:
	endbr64
	movq	%rax, %rbx
.L379:
	leaq	-816(%rbp), %rax
	movq	%rax, %rdi
	call	_ZNSt7__cxx1112basic_stringIcSt11char_traitsIcESaIcEED1Ev@PLT
	jmp	.L375
.L446:
	endbr64
	movq	%rax, %rbx
.L375:
	leaq	-848(%rbp), %rax
	movq	%rax, %rdi
	call	_ZNSt7__cxx1112basic_stringIcSt11char_traitsIcESaIcEED1Ev@PLT
	jmp	.L352
.L444:
	endbr64
	movq	%rax, %rbx
.L352:
	leaq	-1344(%rbp), %rax
	movq	%rax, %rdi
	call	_ZNSt6vectorIP11GraphRecsysSaIS1_EED1Ev
.L324:
	leaq	-1104(%rbp), %rax
	movq	%rax, %rdi
	call	_ZNSt3mapINSt7__cxx1112basic_stringIcSt11char_traitsIcESaIcEEEiSt4lessIS5_ESaISt4pairIKS5_iEEED1Ev
	leaq	-1152(%rbp), %rax
	movq	%rax, %rdi
	call	_ZNSt3mapINSt7__cxx1112basic_stringIcSt11char_traitsIcESaIcEEEiSt4lessIS5_ESaISt4pairIKS5_iEEED1Ev
	leaq	-1200(%rbp), %rax
	movq	%rax, %rdi
	call	_ZNSt3mapINSt7__cxx1112basic_stringIcSt11char_traitsIcESaIcEEEiSt4lessIS5_ESaISt4pairIKS5_iEEED1Ev
	leaq	-1248(%rbp), %rax
	movq	%rax, %rdi
	call	_ZNSt3mapINSt7__cxx1112basic_stringIcSt11char_traitsIcESaIcEEEiSt4lessIS5_ESaISt4pairIKS5_iEEED1Ev
	movq	%rbx, %rax
	movq	%rax, %rdi
.LEHB158:
	call	_Unwind_Resume@PLT
.LEHE158:
.L469:
	call	__stack_chk_fail@PLT
.L397:
	addq	$1416, %rsp
	popq	%rbx
	popq	%r12
	popq	%r13
	popq	%rbp
	.cfi_def_cfa 7, 8
	ret
	.cfi_endproc
.LFE8492:
	.section	.gcc_except_table
.LLSDA8492:
	.byte	0xff
	.byte	0xff
	.byte	0x1
	.uleb128 .LLSDACSE8492-.LLSDACSB8492
.LLSDACSB8492:
	.uleb128 .LEHB79-.LFB8492
	.uleb128 .LEHE79-.LEHB79
	.uleb128 .L398-.LFB8492
	.uleb128 0
	.uleb128 .LEHB80-.LFB8492
	.uleb128 .LEHE80-.LEHB80
	.uleb128 .L399-.LFB8492
	.uleb128 0
	.uleb128 .LEHB81-.LFB8492
	.uleb128 .LEHE81-.LEHB81
	.uleb128 .L400-.LFB8492
	.uleb128 0
	.uleb128 .LEHB82-.LFB8492
	.uleb128 .LEHE82-.LEHB82
	.uleb128 .L401-.LFB8492
	.uleb128 0
	.uleb128 .LEHB83-.LFB8492
	.uleb128 .LEHE83-.LEHB83
	.uleb128 .L402-.LFB8492
	.uleb128 0
	.uleb128 .LEHB84-.LFB8492
	.uleb128 .LEHE84-.LEHB84
	.uleb128 .L403-.LFB8492
	.uleb128 0
	.uleb128 .LEHB85-.LFB8492
	.uleb128 .LEHE85-.LEHB85
	.uleb128 .L404-.LFB8492
	.uleb128 0
	.uleb128 .LEHB86-.LFB8492
	.uleb128 .LEHE86-.LEHB86
	.uleb128 .L405-.LFB8492
	.uleb128 0
	.uleb128 .LEHB87-.LFB8492
	.uleb128 .LEHE87-.LEHB87
	.uleb128 .L406-.LFB8492
	.uleb128 0
	.uleb128 .LEHB88-.LFB8492
	.uleb128 .LEHE88-.LEHB88
	.uleb128 .L407-.LFB8492
	.uleb128 0
	.uleb128 .LEHB89-.LFB8492
	.uleb128 .LEHE89-.LEHB89
	.uleb128 .L408-.LFB8492
	.uleb128 0
	.uleb128 .LEHB90-.LFB8492
	.uleb128 .LEHE90-.LEHB90
	.uleb128 .L409-.LFB8492
	.uleb128 0
	.uleb128 .LEHB91-.LFB8492
	.uleb128 .LEHE91-.LEHB91
	.uleb128 .L410-.LFB8492
	.uleb128 0
	.uleb128 .LEHB92-.LFB8492
	.uleb128 .LEHE92-.LEHB92
	.uleb128 .L411-.LFB8492
	.uleb128 0
	.uleb128 .LEHB93-.LFB8492
	.uleb128 .LEHE93-.LEHB93
	.uleb128 .L412-.LFB8492
	.uleb128 0
	.uleb128 .LEHB94-.LFB8492
	.uleb128 .LEHE94-.LEHB94
	.uleb128 .L413-.LFB8492
	.uleb128 0
	.uleb128 .LEHB95-.LFB8492
	.uleb128 .LEHE95-.LEHB95
	.uleb128 .L414-.LFB8492
	.uleb128 0
	.uleb128 .LEHB96-.LFB8492
	.uleb128 .LEHE96-.LEHB96
	.uleb128 .L415-.LFB8492
	.uleb128 0
	.uleb128 .LEHB97-.LFB8492
	.uleb128 .LEHE97-.LEHB97
	.uleb128 .L416-.LFB8492
	.uleb128 0
	.uleb128 .LEHB98-.LFB8492
	.uleb128 .LEHE98-.LEHB98
	.uleb128 .L417-.LFB8492
	.uleb128 0
	.uleb128 .LEHB99-.LFB8492
	.uleb128 .LEHE99-.LEHB99
	.uleb128 .L418-.LFB8492
	.uleb128 0
	.uleb128 .LEHB100-.LFB8492
	.uleb128 .LEHE100-.LEHB100
	.uleb128 .L419-.LFB8492
	.uleb128 0
	.uleb128 .LEHB101-.LFB8492
	.uleb128 .LEHE101-.LEHB101
	.uleb128 .L420-.LFB8492
	.uleb128 0
	.uleb128 .LEHB102-.LFB8492
	.uleb128 .LEHE102-.LEHB102
	.uleb128 .L421-.LFB8492
	.uleb128 0
	.uleb128 .LEHB103-.LFB8492
	.uleb128 .LEHE103-.LEHB103
	.uleb128 .L444-.LFB8492
	.uleb128 0
	.uleb128 .LEHB104-.LFB8492
	.uleb128 .LEHE104-.LEHB104
	.uleb128 .L422-.LFB8492
	.uleb128 0
	.uleb128 .LEHB105-.LFB8492
	.uleb128 .LEHE105-.LEHB105
	.uleb128 .L423-.LFB8492
	.uleb128 0
	.uleb128 .LEHB106-.LFB8492
	.uleb128 .LEHE106-.LEHB106
	.uleb128 .L424-.LFB8492
	.uleb128 0
	.uleb128 .LEHB107-.LFB8492
	.uleb128 .LEHE107-.LEHB107
	.uleb128 .L425-.LFB8492
	.uleb128 0
	.uleb128 .LEHB108-.LFB8492
	.uleb128 .LEHE108-.LEHB108
	.uleb128 .L426-.LFB8492
	.uleb128 0
	.uleb128 .LEHB109-.LFB8492
	.uleb128 .LEHE109-.LEHB109
	.uleb128 .L427-.LFB8492
	.uleb128 0
	.uleb128 .LEHB110-.LFB8492
	.uleb128 .LEHE110-.LEHB110
	.uleb128 .L428-.LFB8492
	.uleb128 0
	.uleb128 .LEHB111-.LFB8492
	.uleb128 .LEHE111-.LEHB111
	.uleb128 .L429-.LFB8492
	.uleb128 0
	.uleb128 .LEHB112-.LFB8492
	.uleb128 .LEHE112-.LEHB112
	.uleb128 .L428-.LFB8492
	.uleb128 0
	.uleb128 .LEHB113-.LFB8492
	.uleb128 .LEHE113-.LEHB113
	.uleb128 .L430-.LFB8492
	.uleb128 0
	.uleb128 .LEHB114-.LFB8492
	.uleb128 .LEHE114-.LEHB114
	.uleb128 .L431-.LFB8492
	.uleb128 0
	.uleb128 .LEHB115-.LFB8492
	.uleb128 .LEHE115-.LEHB115
	.uleb128 .L432-.LFB8492
	.uleb128 0
	.uleb128 .LEHB116-.LFB8492
	.uleb128 .LEHE116-.LEHB116
	.uleb128 .L433-.LFB8492
	.uleb128 0
	.uleb128 .LEHB117-.LFB8492
	.uleb128 .LEHE117-.LEHB117
	.uleb128 .L431-.LFB8492
	.uleb128 0
	.uleb128 .LEHB118-.LFB8492
	.uleb128 .LEHE118-.LEHB118
	.uleb128 .L434-.LFB8492
	.uleb128 0
	.uleb128 .LEHB119-.LFB8492
	.uleb128 .LEHE119-.LEHB119
	.uleb128 .L435-.LFB8492
	.uleb128 0
	.uleb128 .LEHB120-.LFB8492
	.uleb128 .LEHE120-.LEHB120
	.uleb128 .L431-.LFB8492
	.uleb128 0
	.uleb128 .LEHB121-.LFB8492
	.uleb128 .LEHE121-.LEHB121
	.uleb128 .L436-.LFB8492
	.uleb128 0
	.uleb128 .LEHB122-.LFB8492
	.uleb128 .LEHE122-.LEHB122
	.uleb128 .L437-.LFB8492
	.uleb128 0
	.uleb128 .LEHB123-.LFB8492
	.uleb128 .LEHE123-.LEHB123
	.uleb128 .L431-.LFB8492
	.uleb128 0
	.uleb128 .LEHB124-.LFB8492
	.uleb128 .LEHE124-.LEHB124
	.uleb128 .L438-.LFB8492
	.uleb128 0
	.uleb128 .LEHB125-.LFB8492
	.uleb128 .LEHE125-.LEHB125
	.uleb128 .L439-.LFB8492
	.uleb128 0
	.uleb128 .LEHB126-.LFB8492
	.uleb128 .LEHE126-.LEHB126
	.uleb128 .L431-.LFB8492
	.uleb128 0
	.uleb128 .LEHB127-.LFB8492
	.uleb128 .LEHE127-.LEHB127
	.uleb128 .L440-.LFB8492
	.uleb128 0
	.uleb128 .LEHB128-.LFB8492
	.uleb128 .LEHE128-.LEHB128
	.uleb128 .L441-.LFB8492
	.uleb128 0
	.uleb128 .LEHB129-.LFB8492
	.uleb128 .LEHE129-.LEHB129
	.uleb128 .L431-.LFB8492
	.uleb128 0
	.uleb128 .LEHB130-.LFB8492
	.uleb128 .LEHE130-.LEHB130
	.uleb128 .L442-.LFB8492
	.uleb128 0
	.uleb128 .LEHB131-.LFB8492
	.uleb128 .LEHE131-.LEHB131
	.uleb128 .L443-.LFB8492
	.uleb128 0
	.uleb128 .LEHB132-.LFB8492
	.uleb128 .LEHE132-.LEHB132
	.uleb128 .L431-.LFB8492
	.uleb128 0
	.uleb128 .LEHB133-.LFB8492
	.uleb128 .LEHE133-.LEHB133
	.uleb128 .L445-.LFB8492
	.uleb128 0
	.uleb128 .LEHB134-.LFB8492
	.uleb128 .LEHE134-.LEHB134
	.uleb128 .L446-.LFB8492
	.uleb128 0
	.uleb128 .LEHB135-.LFB8492
	.uleb128 .LEHE135-.LEHB135
	.uleb128 .L447-.LFB8492
	.uleb128 0
	.uleb128 .LEHB136-.LFB8492
	.uleb128 .LEHE136-.LEHB136
	.uleb128 .L448-.LFB8492
	.uleb128 0
	.uleb128 .LEHB137-.LFB8492
	.uleb128 .LEHE137-.LEHB137
	.uleb128 .L449-.LFB8492
	.uleb128 0
	.uleb128 .LEHB138-.LFB8492
	.uleb128 .LEHE138-.LEHB138
	.uleb128 .L450-.LFB8492
	.uleb128 0
	.uleb128 .LEHB139-.LFB8492
	.uleb128 .LEHE139-.LEHB139
	.uleb128 .L451-.LFB8492
	.uleb128 0
	.uleb128 .LEHB140-.LFB8492
	.uleb128 .LEHE140-.LEHB140
	.uleb128 .L452-.LFB8492
	.uleb128 0
	.uleb128 .LEHB141-.LFB8492
	.uleb128 .LEHE141-.LEHB141
	.uleb128 .L453-.LFB8492
	.uleb128 0
	.uleb128 .LEHB142-.LFB8492
	.uleb128 .LEHE142-.LEHB142
	.uleb128 .L454-.LFB8492
	.uleb128 0
	.uleb128 .LEHB143-.LFB8492
	.uleb128 .LEHE143-.LEHB143
	.uleb128 .L455-.LFB8492
	.uleb128 0
	.uleb128 .LEHB144-.LFB8492
	.uleb128 .LEHE144-.LEHB144
	.uleb128 .L456-.LFB8492
	.uleb128 0
	.uleb128 .LEHB145-.LFB8492
	.uleb128 .LEHE145-.LEHB145
	.uleb128 .L457-.LFB8492
	.uleb128 0
	.uleb128 .LEHB146-.LFB8492
	.uleb128 .LEHE146-.LEHB146
	.uleb128 .L458-.LFB8492
	.uleb128 0
	.uleb128 .LEHB147-.LFB8492
	.uleb128 .LEHE147-.LEHB147
	.uleb128 .L459-.LFB8492
	.uleb128 0
	.uleb128 .LEHB148-.LFB8492
	.uleb128 .LEHE148-.LEHB148
	.uleb128 .L460-.LFB8492
	.uleb128 0
	.uleb128 .LEHB149-.LFB8492
	.uleb128 .LEHE149-.LEHB149
	.uleb128 .L461-.LFB8492
	.uleb128 0
	.uleb128 .LEHB150-.LFB8492
	.uleb128 .LEHE150-.LEHB150
	.uleb128 .L462-.LFB8492
	.uleb128 0
	.uleb128 .LEHB151-.LFB8492
	.uleb128 .LEHE151-.LEHB151
	.uleb128 .L463-.LFB8492
	.uleb128 0
	.uleb128 .LEHB152-.LFB8492
	.uleb128 .LEHE152-.LEHB152
	.uleb128 .L464-.LFB8492
	.uleb128 0
	.uleb128 .LEHB153-.LFB8492
	.uleb128 .LEHE153-.LEHB153
	.uleb128 .L465-.LFB8492
	.uleb128 0
	.uleb128 .LEHB154-.LFB8492
	.uleb128 .LEHE154-.LEHB154
	.uleb128 .L466-.LFB8492
	.uleb128 0
	.uleb128 .LEHB155-.LFB8492
	.uleb128 .LEHE155-.LEHB155
	.uleb128 .L467-.LFB8492
	.uleb128 0
	.uleb128 .LEHB156-.LFB8492
	.uleb128 .LEHE156-.LEHB156
	.uleb128 .L464-.LFB8492
	.uleb128 0
	.uleb128 .LEHB157-.LFB8492
	.uleb128 .LEHE157-.LEHB157
	.uleb128 .L468-.LFB8492
	.uleb128 0
	.uleb128 .LEHB158-.LFB8492
	.uleb128 .LEHE158-.LEHB158
	.uleb128 0
	.uleb128 0
.LLSDACSE8492:
	.text
	.size	_Z8main_runSt6vectorIP10List_paramSaIS1_EES_IS_IdSaIdEESaIS5_EES7_S_INSt7__cxx1112basic_stringIcSt11char_traitsIcESaIcEEESaISD_EEi, .-_Z8main_runSt6vectorIP10List_paramSaIS1_EES_IS_IdSaIdEESaIS5_EES7_S_INSt7__cxx1112basic_stringIcSt11char_traitsIcESaIcEEESaISD_EEi
	.section	.text._ZN9__gnu_cxx12__to_xstringINSt7__cxx1112basic_stringIcSt11char_traitsIcESaIcEEEcEET_PFiPT0_mPKS8_P13__va_list_tagEmSB_z,"axG",@progbits,_ZN9__gnu_cxx12__to_xstringINSt7__cxx1112basic_stringIcSt11char_traitsIcESaIcEEEcEET_PFiPT0_mPKS8_P13__va_list_tagEmSB_z,comdat
	.weak	_ZN9__gnu_cxx12__to_xstringINSt7__cxx1112basic_stringIcSt11char_traitsIcESaIcEEEcEET_PFiPT0_mPKS8_P13__va_list_tagEmSB_z
	.type	_ZN9__gnu_cxx12__to_xstringINSt7__cxx1112basic_stringIcSt11char_traitsIcESaIcEEEcEET_PFiPT0_mPKS8_P13__va_list_tagEmSB_z, @function
_ZN9__gnu_cxx12__to_xstringINSt7__cxx1112basic_stringIcSt11char_traitsIcESaIcEEEcEET_PFiPT0_mPKS8_P13__va_list_tagEmSB_z:
.LFB8590:
	.cfi_startproc
	.cfi_personality 0x9b,DW.ref.__gxx_personality_v0
	.cfi_lsda 0x1b,.LLSDA8590
	endbr64
	pushq	%rbp
	.cfi_def_cfa_offset 16
	.cfi_offset 6, -16
	movq	%rsp, %rbp
	.cfi_def_cfa_register 6
	pushq	%rbx
	subq	$264, %rsp
	.cfi_offset 3, -24
	movq	%rdi, -248(%rbp)
	movq	%rsi, -256(%rbp)
	movq	%rdx, -264(%rbp)
	movq	%rcx, -272(%rbp)
	movq	%r8, -160(%rbp)
	movq	%r9, -152(%rbp)
	testb	%al, %al
	je	.L471
	movaps	%xmm0, -144(%rbp)
	movaps	%xmm1, -128(%rbp)
	movaps	%xmm2, -112(%rbp)
	movaps	%xmm3, -96(%rbp)
	movaps	%xmm4, -80(%rbp)
	movaps	%xmm5, -64(%rbp)
	movaps	%xmm6, -48(%rbp)
	movaps	%xmm7, -32(%rbp)
.L471:
	movq	%fs:40, %rax
	movq	%rax, -200(%rbp)
	xorl	%eax, %eax
	movq	-264(%rbp), %rax
	leaq	8(%rax), %rdx
	movl	$16, %eax
	subq	$1, %rax
	addq	%rdx, %rax
	movl	$16, %ecx
	movl	$0, %edx
	divq	%rcx
	imulq	$16, %rax, %rax
	movq	%rax, %rdx
	andq	$-4096, %rdx
	movq	%rsp, %rbx
	subq	%rdx, %rbx
	movq	%rbx, %rdx
.L472:
	cmpq	%rdx, %rsp
	je	.L473
	subq	$4096, %rsp
	orq	$0, 4088(%rsp)
	jmp	.L472
.L473:
	movq	%rax, %rdx
	andl	$4095, %edx
	subq	%rdx, %rsp
	movq	%rax, %rdx
	andl	$4095, %edx
	testq	%rdx, %rdx
	je	.L474
	andl	$4095, %eax
	subq	$8, %rax
	addq	%rsp, %rax
	orq	$0, (%rax)
.L474:
	movq	%rsp, %rax
	addq	$15, %rax
	shrq	$4, %rax
	salq	$4, %rax
	movq	%rax, -232(%rbp)
	movl	$32, -224(%rbp)
	movl	$48, -220(%rbp)
	leaq	16(%rbp), %rax
	movq	%rax, -216(%rbp)
	leaq	-192(%rbp), %rax
	movq	%rax, -208(%rbp)
	leaq	-224(%rbp), %rcx
	movq	-272(%rbp), %rdx
	movq	-264(%rbp), %rsi
	movq	-232(%rbp), %rax
	movq	-256(%rbp), %r8
	movq	%rax, %rdi
.LEHB159:
	call	*%r8
.LEHE159:
	movl	%eax, -236(%rbp)
	leaq	-237(%rbp), %rax
	movq	%rax, %rdi
	call	_ZNSaIcEC1Ev@PLT
	movl	-236(%rbp), %eax
	movslq	%eax, %rdx
	movq	-232(%rbp), %rax
	leaq	(%rdx,%rax), %rdi
	leaq	-237(%rbp), %rdx
	movq	-232(%rbp), %rsi
	movq	-248(%rbp), %rax
	movq	%rdx, %rcx
	movq	%rdi, %rdx
	movq	%rax, %rdi
.LEHB160:
	call	_ZNSt7__cxx1112basic_stringIcSt11char_traitsIcESaIcEEC1IPcvEET_S7_RKS3_
.LEHE160:
	leaq	-237(%rbp), %rax
	movq	%rax, %rdi
	call	_ZNSaIcED1Ev@PLT
	movq	-200(%rbp), %rax
	xorq	%fs:40, %rax
	je	.L477
	jmp	.L479
.L478:
	endbr64
	movq	%rax, %rbx
	leaq	-237(%rbp), %rax
	movq	%rax, %rdi
	call	_ZNSaIcED1Ev@PLT
	movq	%rbx, %rax
	movq	%rax, %rdi
.LEHB161:
	call	_Unwind_Resume@PLT
.LEHE161:
.L479:
	call	__stack_chk_fail@PLT
.L477:
	movq	-248(%rbp), %rax
	movq	-8(%rbp), %rbx
	leave
	.cfi_def_cfa 7, 8
	ret
	.cfi_endproc
.LFE8590:
	.section	.gcc_except_table
.LLSDA8590:
	.byte	0xff
	.byte	0xff
	.byte	0x1
	.uleb128 .LLSDACSE8590-.LLSDACSB8590
.LLSDACSB8590:
	.uleb128 .LEHB159-.LFB8590
	.uleb128 .LEHE159-.LEHB159
	.uleb128 0
	.uleb128 0
	.uleb128 .LEHB160-.LFB8590
	.uleb128 .LEHE160-.LEHB160
	.uleb128 .L478-.LFB8590
	.uleb128 0
	.uleb128 .LEHB161-.LFB8590
	.uleb128 .LEHE161-.LEHB161
	.uleb128 0
	.uleb128 0
.LLSDACSE8590:
	.section	.text._ZN9__gnu_cxx12__to_xstringINSt7__cxx1112basic_stringIcSt11char_traitsIcESaIcEEEcEET_PFiPT0_mPKS8_P13__va_list_tagEmSB_z,"axG",@progbits,_ZN9__gnu_cxx12__to_xstringINSt7__cxx1112basic_stringIcSt11char_traitsIcESaIcEEEcEET_PFiPT0_mPKS8_P13__va_list_tagEmSB_z,comdat
	.size	_ZN9__gnu_cxx12__to_xstringINSt7__cxx1112basic_stringIcSt11char_traitsIcESaIcEEEcEET_PFiPT0_mPKS8_P13__va_list_tagEmSB_z, .-_ZN9__gnu_cxx12__to_xstringINSt7__cxx1112basic_stringIcSt11char_traitsIcESaIcEEEcEET_PFiPT0_mPKS8_P13__va_list_tagEmSB_z
	.section	.text._ZNSt7__cxx1112basic_stringIcSt11char_traitsIcESaIcEE12_Alloc_hiderD2Ev,"axG",@progbits,_ZNSt7__cxx1112basic_stringIcSt11char_traitsIcESaIcEE12_Alloc_hiderD5Ev,comdat
	.align 2
	.weak	_ZNSt7__cxx1112basic_stringIcSt11char_traitsIcESaIcEE12_Alloc_hiderD2Ev
	.type	_ZNSt7__cxx1112basic_stringIcSt11char_traitsIcESaIcEE12_Alloc_hiderD2Ev, @function
_ZNSt7__cxx1112basic_stringIcSt11char_traitsIcESaIcEE12_Alloc_hiderD2Ev:
.LFB8593:
	.cfi_startproc
	endbr64
	pushq	%rbp
	.cfi_def_cfa_offset 16
	.cfi_offset 6, -16
	movq	%rsp, %rbp
	.cfi_def_cfa_register 6
	subq	$16, %rsp
	movq	%rdi, -8(%rbp)
	movq	-8(%rbp), %rax
	movq	%rax, %rdi
	call	_ZNSaIcED2Ev@PLT
	nop
	leave
	.cfi_def_cfa 7, 8
	ret
	.cfi_endproc
.LFE8593:
	.size	_ZNSt7__cxx1112basic_stringIcSt11char_traitsIcESaIcEE12_Alloc_hiderD2Ev, .-_ZNSt7__cxx1112basic_stringIcSt11char_traitsIcESaIcEE12_Alloc_hiderD2Ev
	.weak	_ZNSt7__cxx1112basic_stringIcSt11char_traitsIcESaIcEE12_Alloc_hiderD1Ev
	.set	_ZNSt7__cxx1112basic_stringIcSt11char_traitsIcESaIcEE12_Alloc_hiderD1Ev,_ZNSt7__cxx1112basic_stringIcSt11char_traitsIcESaIcEE12_Alloc_hiderD2Ev
	.section	.text._ZStplIcSt11char_traitsIcESaIcEENSt7__cxx1112basic_stringIT_T0_T1_EERKS8_PKS5_,"axG",@progbits,_ZStplIcSt11char_traitsIcESaIcEENSt7__cxx1112basic_stringIT_T0_T1_EERKS8_PKS5_,comdat
	.weak	_ZStplIcSt11char_traitsIcESaIcEENSt7__cxx1112basic_stringIT_T0_T1_EERKS8_PKS5_
	.type	_ZStplIcSt11char_traitsIcESaIcEENSt7__cxx1112basic_stringIT_T0_T1_EERKS8_PKS5_, @function
_ZStplIcSt11char_traitsIcESaIcEENSt7__cxx1112basic_stringIT_T0_T1_EERKS8_PKS5_:
.LFB8748:
	.cfi_startproc
	.cfi_personality 0x9b,DW.ref.__gxx_personality_v0
	.cfi_lsda 0x1b,.LLSDA8748
	endbr64
	pushq	%rbp
	.cfi_def_cfa_offset 16
	.cfi_offset 6, -16
	movq	%rsp, %rbp
	.cfi_def_cfa_register 6
	pushq	%rbx
	subq	$56, %rsp
	.cfi_offset 3, -24
	movq	%rdi, -40(%rbp)
	movq	%rsi, -48(%rbp)
	movq	%rdx, -56(%rbp)
	movq	%fs:40, %rax
	movq	%rax, -24(%rbp)
	xorl	%eax, %eax
	movq	-48(%rbp), %rdx
	movq	-40(%rbp), %rax
	movq	%rdx, %rsi
	movq	%rax, %rdi
.LEHB162:
	call	_ZNSt7__cxx1112basic_stringIcSt11char_traitsIcESaIcEEC1ERKS4_@PLT
.LEHE162:
	movq	-56(%rbp), %rdx
	movq	-40(%rbp), %rax
	movq	%rdx, %rsi
	movq	%rax, %rdi
.LEHB163:
	call	_ZNSt7__cxx1112basic_stringIcSt11char_traitsIcESaIcEE6appendEPKc@PLT
.LEHE163:
	jmp	.L486
.L485:
	endbr64
	movq	%rax, %rbx
	movq	-40(%rbp), %rax
	movq	%rax, %rdi
	call	_ZNSt7__cxx1112basic_stringIcSt11char_traitsIcESaIcEED1Ev@PLT
	movq	%rbx, %rax
	movq	%rax, %rdi
.LEHB164:
	call	_Unwind_Resume@PLT
.LEHE164:
.L486:
	movq	-24(%rbp), %rax
	xorq	%fs:40, %rax
	je	.L484
	call	__stack_chk_fail@PLT
.L484:
	movq	-40(%rbp), %rax
	addq	$56, %rsp
	popq	%rbx
	popq	%rbp
	.cfi_def_cfa 7, 8
	ret
	.cfi_endproc
.LFE8748:
	.section	.gcc_except_table
.LLSDA8748:
	.byte	0xff
	.byte	0xff
	.byte	0x1
	.uleb128 .LLSDACSE8748-.LLSDACSB8748
.LLSDACSB8748:
	.uleb128 .LEHB162-.LFB8748
	.uleb128 .LEHE162-.LEHB162
	.uleb128 0
	.uleb128 0
	.uleb128 .LEHB163-.LFB8748
	.uleb128 .LEHE163-.LEHB163
	.uleb128 .L485-.LFB8748
	.uleb128 0
	.uleb128 .LEHB164-.LFB8748
	.uleb128 .LEHE164-.LEHB164
	.uleb128 0
	.uleb128 0
.LLSDACSE8748:
	.section	.text._ZStplIcSt11char_traitsIcESaIcEENSt7__cxx1112basic_stringIT_T0_T1_EERKS8_PKS5_,"axG",@progbits,_ZStplIcSt11char_traitsIcESaIcEENSt7__cxx1112basic_stringIT_T0_T1_EERKS8_PKS5_,comdat
	.size	_ZStplIcSt11char_traitsIcESaIcEENSt7__cxx1112basic_stringIT_T0_T1_EERKS8_PKS5_, .-_ZStplIcSt11char_traitsIcESaIcEENSt7__cxx1112basic_stringIT_T0_T1_EERKS8_PKS5_
	.section	.text._ZStplIcSt11char_traitsIcESaIcEENSt7__cxx1112basic_stringIT_T0_T1_EEOS8_S9_,"axG",@progbits,_ZStplIcSt11char_traitsIcESaIcEENSt7__cxx1112basic_stringIT_T0_T1_EEOS8_S9_,comdat
	.weak	_ZStplIcSt11char_traitsIcESaIcEENSt7__cxx1112basic_stringIT_T0_T1_EEOS8_S9_
	.type	_ZStplIcSt11char_traitsIcESaIcEENSt7__cxx1112basic_stringIT_T0_T1_EEOS8_S9_, @function
_ZStplIcSt11char_traitsIcESaIcEENSt7__cxx1112basic_stringIT_T0_T1_EEOS8_S9_:
.LFB8749:
	.cfi_startproc
	endbr64
	pushq	%rbp
	.cfi_def_cfa_offset 16
	.cfi_offset 6, -16
	movq	%rsp, %rbp
	.cfi_def_cfa_register 6
	pushq	%rbx
	subq	$56, %rsp
	.cfi_offset 3, -24
	movq	%rdi, -40(%rbp)
	movq	%rsi, -48(%rbp)
	movq	%rdx, -56(%rbp)
	movq	-48(%rbp), %rax
	movq	%rax, %rdi
	call	_ZNKSt7__cxx1112basic_stringIcSt11char_traitsIcESaIcEE4sizeEv@PLT
	movq	%rax, %rbx
	movq	-56(%rbp), %rax
	movq	%rax, %rdi
	call	_ZNKSt7__cxx1112basic_stringIcSt11char_traitsIcESaIcEE4sizeEv@PLT
	addq	%rbx, %rax
	movq	%rax, -24(%rbp)
	movq	-48(%rbp), %rax
	movq	%rax, %rdi
	call	_ZNKSt7__cxx1112basic_stringIcSt11char_traitsIcESaIcEE8capacityEv@PLT
	cmpq	%rax, -24(%rbp)
	jbe	.L488
	movq	-56(%rbp), %rax
	movq	%rax, %rdi
	call	_ZNKSt7__cxx1112basic_stringIcSt11char_traitsIcESaIcEE8capacityEv@PLT
	cmpq	%rax, -24(%rbp)
	ja	.L488
	movl	$1, %eax
	jmp	.L489
.L488:
	movl	$0, %eax
.L489:
	movb	%al, -25(%rbp)
	cmpb	$0, -25(%rbp)
	je	.L490
	movq	-48(%rbp), %rdx
	movq	-56(%rbp), %rax
	movl	$0, %esi
	movq	%rax, %rdi
	call	_ZNSt7__cxx1112basic_stringIcSt11char_traitsIcESaIcEE6insertEmRKS4_@PLT
	movq	%rax, %rdi
	call	_ZSt4moveIRNSt7__cxx1112basic_stringIcSt11char_traitsIcESaIcEEEEONSt16remove_referenceIT_E4typeEOS8_
	jmp	.L491
.L490:
	movq	-56(%rbp), %rdx
	movq	-48(%rbp), %rax
	movq	%rdx, %rsi
	movq	%rax, %rdi
	call	_ZNSt7__cxx1112basic_stringIcSt11char_traitsIcESaIcEE6appendERKS4_@PLT
	movq	%rax, %rdi
	call	_ZSt4moveIRNSt7__cxx1112basic_stringIcSt11char_traitsIcESaIcEEEEONSt16remove_referenceIT_E4typeEOS8_
.L491:
	movq	-40(%rbp), %rdx
	movq	%rax, %rsi
	movq	%rdx, %rdi
	call	_ZNSt7__cxx1112basic_stringIcSt11char_traitsIcESaIcEEC1EOS4_@PLT
	movq	-40(%rbp), %rax
	addq	$56, %rsp
	popq	%rbx
	popq	%rbp
	.cfi_def_cfa 7, 8
	ret
	.cfi_endproc
.LFE8749:
	.size	_ZStplIcSt11char_traitsIcESaIcEENSt7__cxx1112basic_stringIT_T0_T1_EEOS8_S9_, .-_ZStplIcSt11char_traitsIcESaIcEENSt7__cxx1112basic_stringIT_T0_T1_EEOS8_S9_
	.section	.text._ZStplIcSt11char_traitsIcESaIcEENSt7__cxx1112basic_stringIT_T0_T1_EEPKS5_OS8_,"axG",@progbits,_ZStplIcSt11char_traitsIcESaIcEENSt7__cxx1112basic_stringIT_T0_T1_EEPKS5_OS8_,comdat
	.weak	_ZStplIcSt11char_traitsIcESaIcEENSt7__cxx1112basic_stringIT_T0_T1_EEPKS5_OS8_
	.type	_ZStplIcSt11char_traitsIcESaIcEENSt7__cxx1112basic_stringIT_T0_T1_EEPKS5_OS8_, @function
_ZStplIcSt11char_traitsIcESaIcEENSt7__cxx1112basic_stringIT_T0_T1_EEPKS5_OS8_:
.LFB8750:
	.cfi_startproc
	endbr64
	pushq	%rbp
	.cfi_def_cfa_offset 16
	.cfi_offset 6, -16
	movq	%rsp, %rbp
	.cfi_def_cfa_register 6
	subq	$32, %rsp
	movq	%rdi, -8(%rbp)
	movq	%rsi, -16(%rbp)
	movq	%rdx, -24(%rbp)
	movq	-16(%rbp), %rdx
	movq	-24(%rbp), %rax
	movl	$0, %esi
	movq	%rax, %rdi
	call	_ZNSt7__cxx1112basic_stringIcSt11char_traitsIcESaIcEE6insertEmPKc@PLT
	movq	%rax, %rdi
	call	_ZSt4moveIRNSt7__cxx1112basic_stringIcSt11char_traitsIcESaIcEEEEONSt16remove_referenceIT_E4typeEOS8_
	movq	%rax, %rdx
	movq	-8(%rbp), %rax
	movq	%rdx, %rsi
	movq	%rax, %rdi
	call	_ZNSt7__cxx1112basic_stringIcSt11char_traitsIcESaIcEEC1EOS4_@PLT
	movq	-8(%rbp), %rax
	leave
	.cfi_def_cfa 7, 8
	ret
	.cfi_endproc
.LFE8750:
	.size	_ZStplIcSt11char_traitsIcESaIcEENSt7__cxx1112basic_stringIT_T0_T1_EEPKS5_OS8_, .-_ZStplIcSt11char_traitsIcESaIcEENSt7__cxx1112basic_stringIT_T0_T1_EEPKS5_OS8_
	.section	.text._ZSt3maxImERKT_S2_S2_,"axG",@progbits,_ZSt3maxImERKT_S2_S2_,comdat
	.weak	_ZSt3maxImERKT_S2_S2_
	.type	_ZSt3maxImERKT_S2_S2_, @function
_ZSt3maxImERKT_S2_S2_:
.LFB9057:
	.cfi_startproc
	endbr64
	pushq	%rbp
	.cfi_def_cfa_offset 16
	.cfi_offset 6, -16
	movq	%rsp, %rbp
	.cfi_def_cfa_register 6
	movq	%rdi, -8(%rbp)
	movq	%rsi, -16(%rbp)
	movq	-8(%rbp), %rax
	movq	(%rax), %rdx
	movq	-16(%rbp), %rax
	movq	(%rax), %rax
	cmpq	%rax, %rdx
	jnb	.L496
	movq	-16(%rbp), %rax
	jmp	.L497
.L496:
	movq	-8(%rbp), %rax
.L497:
	popq	%rbp
	.cfi_def_cfa 7, 8
	ret
	.cfi_endproc
.LFE9057:
	.size	_ZSt3maxImERKT_S2_S2_, .-_ZSt3maxImERKT_S2_S2_
	.section	.text._ZSt7forwardIiEOT_RNSt16remove_referenceIS0_E4typeE,"axG",@progbits,_ZSt7forwardIiEOT_RNSt16remove_referenceIS0_E4typeE,comdat
	.weak	_ZSt7forwardIiEOT_RNSt16remove_referenceIS0_E4typeE
	.type	_ZSt7forwardIiEOT_RNSt16remove_referenceIS0_E4typeE, @function
_ZSt7forwardIiEOT_RNSt16remove_referenceIS0_E4typeE:
.LFB9081:
	.cfi_startproc
	endbr64
	pushq	%rbp
	.cfi_def_cfa_offset 16
	.cfi_offset 6, -16
	movq	%rsp, %rbp
	.cfi_def_cfa_register 6
	movq	%rdi, -8(%rbp)
	movq	-8(%rbp), %rax
	popq	%rbp
	.cfi_def_cfa 7, 8
	ret
	.cfi_endproc
.LFE9081:
	.size	_ZSt7forwardIiEOT_RNSt16remove_referenceIS0_E4typeE, .-_ZSt7forwardIiEOT_RNSt16remove_referenceIS0_E4typeE
	.section	.text._ZNSaINSt7__cxx1112basic_stringIcSt11char_traitsIcESaIcEEEED2Ev,"axG",@progbits,_ZNSaINSt7__cxx1112basic_stringIcSt11char_traitsIcESaIcEEEED5Ev,comdat
	.align 2
	.weak	_ZNSaINSt7__cxx1112basic_stringIcSt11char_traitsIcESaIcEEEED2Ev
	.type	_ZNSaINSt7__cxx1112basic_stringIcSt11char_traitsIcESaIcEEEED2Ev, @function
_ZNSaINSt7__cxx1112basic_stringIcSt11char_traitsIcESaIcEEEED2Ev:
.LFB9147:
	.cfi_startproc
	endbr64
	pushq	%rbp
	.cfi_def_cfa_offset 16
	.cfi_offset 6, -16
	movq	%rsp, %rbp
	.cfi_def_cfa_register 6
	subq	$16, %rsp
	movq	%rdi, -8(%rbp)
	movq	-8(%rbp), %rax
	movq	%rax, %rdi
	call	_ZN9__gnu_cxx13new_allocatorINSt7__cxx1112basic_stringIcSt11char_traitsIcESaIcEEEED2Ev
	nop
	leave
	.cfi_def_cfa 7, 8
	ret
	.cfi_endproc
.LFE9147:
	.size	_ZNSaINSt7__cxx1112basic_stringIcSt11char_traitsIcESaIcEEEED2Ev, .-_ZNSaINSt7__cxx1112basic_stringIcSt11char_traitsIcESaIcEEEED2Ev
	.weak	_ZNSaINSt7__cxx1112basic_stringIcSt11char_traitsIcESaIcEEEED1Ev
	.set	_ZNSaINSt7__cxx1112basic_stringIcSt11char_traitsIcESaIcEEEED1Ev,_ZNSaINSt7__cxx1112basic_stringIcSt11char_traitsIcESaIcEEEED2Ev
	.section	.text._ZNSt12_Vector_baseINSt7__cxx1112basic_stringIcSt11char_traitsIcESaIcEEESaIS5_EED2Ev,"axG",@progbits,_ZNSt12_Vector_baseINSt7__cxx1112basic_stringIcSt11char_traitsIcESaIcEEESaIS5_EED5Ev,comdat
	.align 2
	.weak	_ZNSt12_Vector_baseINSt7__cxx1112basic_stringIcSt11char_traitsIcESaIcEEESaIS5_EED2Ev
	.type	_ZNSt12_Vector_baseINSt7__cxx1112basic_stringIcSt11char_traitsIcESaIcEEESaIS5_EED2Ev, @function
_ZNSt12_Vector_baseINSt7__cxx1112basic_stringIcSt11char_traitsIcESaIcEEESaIS5_EED2Ev:
.LFB9150:
	.cfi_startproc
	.cfi_personality 0x9b,DW.ref.__gxx_personality_v0
	.cfi_lsda 0x1b,.LLSDA9150
	endbr64
	pushq	%rbp
	.cfi_def_cfa_offset 16
	.cfi_offset 6, -16
	movq	%rsp, %rbp
	.cfi_def_cfa_register 6
	subq	$16, %rsp
	movq	%rdi, -8(%rbp)
	movq	-8(%rbp), %rax
	movq	16(%rax), %rdx
	movq	-8(%rbp), %rax
	movq	(%rax), %rax
	subq	%rax, %rdx
	movq	%rdx, %rax
	sarq	$5, %rax
	movq	%rax, %rdx
	movq	-8(%rbp), %rax
	movq	(%rax), %rcx
	movq	-8(%rbp), %rax
	movq	%rcx, %rsi
	movq	%rax, %rdi
	call	_ZNSt12_Vector_baseINSt7__cxx1112basic_stringIcSt11char_traitsIcESaIcEEESaIS5_EE13_M_deallocateEPS5_m
	movq	-8(%rbp), %rax
	movq	%rax, %rdi
	call	_ZNSt12_Vector_baseINSt7__cxx1112basic_stringIcSt11char_traitsIcESaIcEEESaIS5_EE12_Vector_implD1Ev
	nop
	leave
	.cfi_def_cfa 7, 8
	ret
	.cfi_endproc
.LFE9150:
	.section	.gcc_except_table
.LLSDA9150:
	.byte	0xff
	.byte	0xff
	.byte	0x1
	.uleb128 .LLSDACSE9150-.LLSDACSB9150
.LLSDACSB9150:
.LLSDACSE9150:
	.section	.text._ZNSt12_Vector_baseINSt7__cxx1112basic_stringIcSt11char_traitsIcESaIcEEESaIS5_EED2Ev,"axG",@progbits,_ZNSt12_Vector_baseINSt7__cxx1112basic_stringIcSt11char_traitsIcESaIcEEESaIS5_EED5Ev,comdat
	.size	_ZNSt12_Vector_baseINSt7__cxx1112basic_stringIcSt11char_traitsIcESaIcEEESaIS5_EED2Ev, .-_ZNSt12_Vector_baseINSt7__cxx1112basic_stringIcSt11char_traitsIcESaIcEEESaIS5_EED2Ev
	.weak	_ZNSt12_Vector_baseINSt7__cxx1112basic_stringIcSt11char_traitsIcESaIcEEESaIS5_EED1Ev
	.set	_ZNSt12_Vector_baseINSt7__cxx1112basic_stringIcSt11char_traitsIcESaIcEEESaIS5_EED1Ev,_ZNSt12_Vector_baseINSt7__cxx1112basic_stringIcSt11char_traitsIcESaIcEEESaIS5_EED2Ev
	.section	.text._ZNSt6vectorINSt7__cxx1112basic_stringIcSt11char_traitsIcESaIcEEESaIS5_EED2Ev,"axG",@progbits,_ZNSt6vectorINSt7__cxx1112basic_stringIcSt11char_traitsIcESaIcEEESaIS5_EED5Ev,comdat
	.align 2
	.weak	_ZNSt6vectorINSt7__cxx1112basic_stringIcSt11char_traitsIcESaIcEEESaIS5_EED2Ev
	.type	_ZNSt6vectorINSt7__cxx1112basic_stringIcSt11char_traitsIcESaIcEEESaIS5_EED2Ev, @function
_ZNSt6vectorINSt7__cxx1112basic_stringIcSt11char_traitsIcESaIcEEESaIS5_EED2Ev:
.LFB9153:
	.cfi_startproc
	.cfi_personality 0x9b,DW.ref.__gxx_personality_v0
	.cfi_lsda 0x1b,.LLSDA9153
	endbr64
	pushq	%rbp
	.cfi_def_cfa_offset 16
	.cfi_offset 6, -16
	movq	%rsp, %rbp
	.cfi_def_cfa_register 6
	subq	$16, %rsp
	movq	%rdi, -8(%rbp)
	movq	-8(%rbp), %rax
	movq	%rax, %rdi
	call	_ZNSt12_Vector_baseINSt7__cxx1112basic_stringIcSt11char_traitsIcESaIcEEESaIS5_EE19_M_get_Tp_allocatorEv
	movq	%rax, %rdx
	movq	-8(%rbp), %rax
	movq	8(%rax), %rcx
	movq	-8(%rbp), %rax
	movq	(%rax), %rax
	movq	%rcx, %rsi
	movq	%rax, %rdi
	call	_ZSt8_DestroyIPNSt7__cxx1112basic_stringIcSt11char_traitsIcESaIcEEES5_EvT_S7_RSaIT0_E
	movq	-8(%rbp), %rax
	movq	%rax, %rdi
	call	_ZNSt12_Vector_baseINSt7__cxx1112basic_stringIcSt11char_traitsIcESaIcEEESaIS5_EED2Ev
	nop
	leave
	.cfi_def_cfa 7, 8
	ret
	.cfi_endproc
.LFE9153:
	.section	.gcc_except_table
.LLSDA9153:
	.byte	0xff
	.byte	0xff
	.byte	0x1
	.uleb128 .LLSDACSE9153-.LLSDACSB9153
.LLSDACSB9153:
.LLSDACSE9153:
	.section	.text._ZNSt6vectorINSt7__cxx1112basic_stringIcSt11char_traitsIcESaIcEEESaIS5_EED2Ev,"axG",@progbits,_ZNSt6vectorINSt7__cxx1112basic_stringIcSt11char_traitsIcESaIcEEESaIS5_EED5Ev,comdat
	.size	_ZNSt6vectorINSt7__cxx1112basic_stringIcSt11char_traitsIcESaIcEEESaIS5_EED2Ev, .-_ZNSt6vectorINSt7__cxx1112basic_stringIcSt11char_traitsIcESaIcEEESaIS5_EED2Ev
	.weak	_ZNSt6vectorINSt7__cxx1112basic_stringIcSt11char_traitsIcESaIcEEESaIS5_EED1Ev
	.set	_ZNSt6vectorINSt7__cxx1112basic_stringIcSt11char_traitsIcESaIcEEESaIS5_EED1Ev,_ZNSt6vectorINSt7__cxx1112basic_stringIcSt11char_traitsIcESaIcEEESaIS5_EED2Ev
	.section	.text._ZNSt12_Vector_baseISt6vectorIdSaIdEESaIS2_EE12_Vector_implC2Ev,"axG",@progbits,_ZNSt12_Vector_baseISt6vectorIdSaIdEESaIS2_EE12_Vector_implC5Ev,comdat
	.align 2
	.weak	_ZNSt12_Vector_baseISt6vectorIdSaIdEESaIS2_EE12_Vector_implC2Ev
	.type	_ZNSt12_Vector_baseISt6vectorIdSaIdEESaIS2_EE12_Vector_implC2Ev, @function
_ZNSt12_Vector_baseISt6vectorIdSaIdEESaIS2_EE12_Vector_implC2Ev:
.LFB9159:
	.cfi_startproc
	endbr64
	pushq	%rbp
	.cfi_def_cfa_offset 16
	.cfi_offset 6, -16
	movq	%rsp, %rbp
	.cfi_def_cfa_register 6
	subq	$16, %rsp
	movq	%rdi, -8(%rbp)
	movq	-8(%rbp), %rax
	movq	%rax, %rdi
	call	_ZNSaISt6vectorIdSaIdEEEC2Ev
	movq	-8(%rbp), %rax
	movq	%rax, %rdi
	call	_ZNSt12_Vector_baseISt6vectorIdSaIdEESaIS2_EE17_Vector_impl_dataC2Ev
	nop
	leave
	.cfi_def_cfa 7, 8
	ret
	.cfi_endproc
.LFE9159:
	.size	_ZNSt12_Vector_baseISt6vectorIdSaIdEESaIS2_EE12_Vector_implC2Ev, .-_ZNSt12_Vector_baseISt6vectorIdSaIdEESaIS2_EE12_Vector_implC2Ev
	.weak	_ZNSt12_Vector_baseISt6vectorIdSaIdEESaIS2_EE12_Vector_implC1Ev
	.set	_ZNSt12_Vector_baseISt6vectorIdSaIdEESaIS2_EE12_Vector_implC1Ev,_ZNSt12_Vector_baseISt6vectorIdSaIdEESaIS2_EE12_Vector_implC2Ev
	.section	.text._ZNSaISt6vectorIdSaIdEEED2Ev,"axG",@progbits,_ZNSaISt6vectorIdSaIdEEED5Ev,comdat
	.align 2
	.weak	_ZNSaISt6vectorIdSaIdEEED2Ev
	.type	_ZNSaISt6vectorIdSaIdEEED2Ev, @function
_ZNSaISt6vectorIdSaIdEEED2Ev:
.LFB9162:
	.cfi_startproc
	endbr64
	pushq	%rbp
	.cfi_def_cfa_offset 16
	.cfi_offset 6, -16
	movq	%rsp, %rbp
	.cfi_def_cfa_register 6
	subq	$16, %rsp
	movq	%rdi, -8(%rbp)
	movq	-8(%rbp), %rax
	movq	%rax, %rdi
	call	_ZN9__gnu_cxx13new_allocatorISt6vectorIdSaIdEEED2Ev
	nop
	leave
	.cfi_def_cfa 7, 8
	ret
	.cfi_endproc
.LFE9162:
	.size	_ZNSaISt6vectorIdSaIdEEED2Ev, .-_ZNSaISt6vectorIdSaIdEEED2Ev
	.weak	_ZNSaISt6vectorIdSaIdEEED1Ev
	.set	_ZNSaISt6vectorIdSaIdEEED1Ev,_ZNSaISt6vectorIdSaIdEEED2Ev
	.section	.text._ZNSt12_Vector_baseISt6vectorIdSaIdEESaIS2_EED2Ev,"axG",@progbits,_ZNSt12_Vector_baseISt6vectorIdSaIdEESaIS2_EED5Ev,comdat
	.align 2
	.weak	_ZNSt12_Vector_baseISt6vectorIdSaIdEESaIS2_EED2Ev
	.type	_ZNSt12_Vector_baseISt6vectorIdSaIdEESaIS2_EED2Ev, @function
_ZNSt12_Vector_baseISt6vectorIdSaIdEESaIS2_EED2Ev:
.LFB9165:
	.cfi_startproc
	.cfi_personality 0x9b,DW.ref.__gxx_personality_v0
	.cfi_lsda 0x1b,.LLSDA9165
	endbr64
	pushq	%rbp
	.cfi_def_cfa_offset 16
	.cfi_offset 6, -16
	movq	%rsp, %rbp
	.cfi_def_cfa_register 6
	subq	$16, %rsp
